

Microchip MPLAB XC8 Assembler V2.41 build 20230208172133 
                                                                                               Mon May 08 13:04:42 2023

Microchip MPLAB XC8 C Compiler v2.41 (Free license) build 20230208172133 Og1 
     1                           	processor	18F4620
     2                           	fnconf	rparam,??,?,0
     3                           	pagewidth 120
     4                           	opt	flic
     5                           	psect	idataCOMRAM,global,class=CODE,delta=1,noexec
     6                           	psect	smallconst,global,reloc=2,class=SMALLCONST,delta=1,noexec
     7                           	psect	nvCOMRAM,global,class=COMRAM,space=1,delta=1,lowdata,noexec
     8                           	psect	cinit,global,reloc=2,class=CODE,delta=1
     9                           	psect	bssCOMRAM,global,class=COMRAM,space=1,delta=1,lowdata,noexec
    10                           	psect	dataCOMRAM,global,class=COMRAM,space=1,delta=1,lowdata,noexec
    11                           	psect	cstackCOMRAM,global,class=COMRAM,space=1,delta=1,lowdata,noexec
    12                           	psect	text0,global,reloc=2,class=CODE,delta=1
    13                           	psect	text1,global,reloc=2,class=CODE,delta=1
    14                           	psect	text2,global,reloc=2,class=CODE,delta=1
    15                           	psect	text3,global,reloc=2,class=CODE,delta=1
    16                           	psect	text4,global,reloc=2,class=CODE,delta=1
    17                           	psect	text5,global,reloc=2,class=CODE,delta=1
    18                           	psect	text6,global,reloc=2,class=CODE,delta=1
    19                           	psect	text7,global,reloc=2,class=CODE,delta=1
    20                           	psect	text8,global,reloc=2,class=CODE,delta=1
    21                           	psect	text9,global,reloc=2,class=CODE,delta=1
    22                           	psect	text10,global,reloc=2,class=CODE,delta=1
    23                           	psect	text11,global,reloc=2,class=CODE,delta=1
    24                           	psect	text12,global,reloc=2,class=CODE,delta=1
    25                           	psect	text13,global,reloc=2,class=CODE,delta=1
    26                           	psect	text14,global,reloc=2,class=CODE,delta=1
    27                           	psect	text15,global,reloc=2,class=CODE,delta=1
    28                           	psect	text16,global,reloc=2,class=CODE,delta=1
    29                           	psect	text17,global,reloc=2,class=CODE,delta=1
    30                           	psect	text18,global,reloc=2,class=CODE,delta=1
    31                           	psect	intcode,global,reloc=2,class=CODE,delta=1
    32                           	psect	intcode_body,global,reloc=2,class=CODE,delta=1
    33                           	psect	text20,global,reloc=2,class=CODE,delta=1
    34                           	psect	text21,global,reloc=2,class=CODE,delta=1
    35                           	psect	text22,global,reloc=2,class=CODE,delta=1
    36                           	psect	text23,global,reloc=2,class=CODE,delta=1
    37                           	psect	text24,global,reloc=2,class=CODE,delta=1
    38                           	psect	text25,global,reloc=2,class=CODE,delta=1
    39                           	psect	text26,global,reloc=2,class=CODE,delta=1
    40                           	psect	text27,global,reloc=2,class=CODE,delta=1
    41                           	psect	text28,global,reloc=2,class=CODE,delta=1
    42                           	psect	text29,global,reloc=2,class=CODE,delta=1
    43                           	psect	intsave_regs,global,class=BIGRAM,space=1,delta=1,noexec
    44                           	psect	text30,global,reloc=2,class=CODE,delta=1
    45                           	psect	rparam,global,class=COMRAM,space=1,delta=1,noexec
    46                           	psect	temp,global,ovrld,common,class=COMRAM,space=1,delta=1
    47                           	psect	idloc,global,abs,ovrld,class=IDLOC,space=5,delta=1,noexec
    48                           	psect	config,global,abs,ovrld,class=CONFIG,space=4,delta=1,noexec
    49   000000                     
    50                           ; Version 2.40
    51                           ; Generated 17/11/2021 GMT
    52                           ; 
    53                           ; Copyright © 2021, Microchip Technology Inc. and its subsidiaries ("Microchip")
    54                           ; All rights reserved.
    55                           ; 
    56                           ; This software is developed by Microchip Technology Inc. and its subsidiaries ("Microch
      +                          ip").
    57                           ; 
    58                           ; Redistribution and use in source and binary forms, with or without modification, are
    59                           ; permitted provided that the following conditions are met:
    60                           ; 
    61                           ;     1. Redistributions of source code must retain the above copyright notice, this lis
      +                          t of
    62                           ;        conditions and the following disclaimer.
    63                           ; 
    64                           ;     2. Redistributions in binary form must reproduce the above copyright notice, this 
      +                          list
    65                           ;        of conditions and the following disclaimer in the documentation and/or other
    66                           ;        materials provided with the distribution. Publication is not required when
    67                           ;        this file is used in an embedded application.
    68                           ; 
    69                           ;     3. Microchip's name may not be used to endorse or promote products derived from th
      +                          is
    70                           ;        software without specific prior written permission.
    71                           ; 
    72                           ; THIS SOFTWARE IS PROVIDED BY MICROCHIP "AS IS" AND ANY EXPRESS OR IMPLIED WARRANTIES,
    73                           ; INCLUDING, BUT NOT LIMITED TO, THE IMPLIED WARRANTIES OF MERCHANTABILITY AND FITNESS F
      +                          OR
    74                           ; PURPOSE ARE DISCLAIMED.  IN NO EVENT SHALL MICROCHIP BE LIABLE FOR ANY DIRECT, INDIREC
      +                          T,
    75                           ; INCIDENTAL, SPECIAL, EXEMPLARY, OR CONSEQUENTIAL DAMAGES (INCLUDING BUT NOT LIMITED TO
    76                           ; PROCUREMENT OF SUBSTITUTE GOODS OR SERVICES; LOSS OF USE, DATA OR PROFITS; OR BUSINESS
    77                           ; INTERRUPTION) HOWSOEVER CAUSED AND ON ANY THEORY OF LIABILITY, WHETHER IN CONTRACT, ST
      +                          RICT
    78                           ; LIABILITY, OR TORT (INCLUDING NEGLIGENCE OR OTHERWISE) ARISING IN ANY WAY OUT OF THE U
      +                          SE OF
    79                           ; THIS SOFTWARE, EVEN IF ADVISED OF THE POSSIBILITY OF SUCH DAMAGE.
    80                           ; 
    81                           ; 
    82                           ; Code-generator required, PIC18F4620 Definitions
    83                           ; 
    84                           ; SFR Addresses
    85   000000                     
    86                           	psect	idataCOMRAM
    87   001CE0                     __pidataCOMRAM:
    88                           	callstack 0
    89                           
    90                           ;initializer for _port_registers
    91   001CE0  80                 	db	128
    92   001CE1  0F                 	db	15
    93   001CE2  81                 	db	129
    94   001CE3  0F                 	db	15
    95   001CE4  82                 	db	130
    96   001CE5  0F                 	db	15
    97   001CE6  83                 	db	131
    98   001CE7  0F                 	db	15
    99   001CE8  84                 	db	132
   100   001CE9  0F                 	db	15
   101                           
   102                           ;initializer for _lat_registers
   103   001CEA  89                 	db	137
   104   001CEB  0F                 	db	15
   105   001CEC  8A                 	db	138
   106   001CED  0F                 	db	15
   107   001CEE  8B                 	db	139
   108   001CEF  0F                 	db	15
   109   001CF0  8C                 	db	140
   110   001CF1  0F                 	db	15
   111   001CF2  8D                 	db	141
   112   001CF3  0F                 	db	15
   113                           
   114                           ;initializer for _tris_registers
   115   001CF4  92                 	db	146
   116   001CF5  0F                 	db	15
   117   001CF6  93                 	db	147
   118   001CF7  0F                 	db	15
   119   001CF8  94                 	db	148
   120   001CF9  0F                 	db	15
   121   001CFA  95                 	db	149
   122   001CFB  0F                 	db	15
   123   001CFC  96                 	db	150
   124   001CFD  0F                 	db	15
   125                           
   126                           ;initializer for _RB7_flag
   127   001CFE  01                 	db	1
   128                           
   129                           ;initializer for _RB6_flag
   130   001CFF  01                 	db	1
   131                           
   132                           ;initializer for _RB5_flag
   133   001D00  01                 	db	1
   134                           
   135                           ;initializer for _RB4_flag
   136   001D01  01                 	db	1
   137                           
   138                           ;initializer for _int0_obj
   139   001D02  41                 	db	65
   140   001D03  01                 	db	1
   141   001D04  00                 	db	0
   142   001D05  01                 	db	1
   143   001D06  0A                 	db	low _INT0_App_ISR
   144   001D07  1D                 	db	high _INT0_App_ISR
   145                           
   146                           ;initializer for _led_2
   147   001D08  0A                 	db	10
   148                           
   149                           ;initializer for _led_1
   150   001D09  02                 	db	2
   151                           
   152                           	psect	smallconst
   153   001000                     __psmallconst:
   154                           	callstack 0
   155   001000  00                 	db	0
   156   001001                     _keypad_valus:
   157                           	callstack 0
   158   001001  37                 	db	55
   159   001002  38                 	db	56
   160   001003  39                 	db	57
   161   001004  2F                 	db	47
   162   001005  34                 	db	52
   163   001006  35                 	db	53
   164   001007  36                 	db	54
   165   001008  2A                 	db	42
   166   001009  31                 	db	49
   167   00100A  32                 	db	50
   168   00100B  33                 	db	51
   169   00100C  2D                 	db	45
   170   00100D  23                 	db	35
   171   00100E  30                 	db	48
   172   00100F  3D                 	db	61
   173   001010  2B                 	db	43
   174   001011                     __end_of_keypad_valus:
   175                           	callstack 0
   176   000000                     _EECON2	set	4007
   177   000000                     _INTCON2bits	set	4081
   178   001011                     STR_1:
   179   001011  25                 	db	37
   180   001012  69                 	db	105	;'i'
   181   001013  00                 	db	0
   182   001014  00                 	db	0	; dummy byte at the end
   183   000000                     
   184                           	psect	nvCOMRAM
   185   000063                     __pnvCOMRAM:
   186                           	callstack 0
   187   000063                     _ret:
   188                           	callstack 0
   189   000063                     	ds	1
   190   000000                     _PORTBbits	set	3969
   191   000000                     _PORTE	set	3972
   192   000000                     _PORTD	set	3971
   193   000000                     _PORTC	set	3970
   194   000000                     _PORTB	set	3969
   195   000000                     _PORTA	set	3968
   196   000000                     _LATA	set	3977
   197   000000                     _TRISA	set	3986
   198   000000                     _EECON1bits	set	4006
   199   000000                     _EEDATA	set	4008
   200   000000                     _EEADR	set	4009
   201   000000                     _ADCON1bits	set	4033
   202   000000                     _INTCON3bits	set	4080
   203   000000                     _INTCONbits	set	4082
   204   000000                     _TRISE	set	3990
   205   000000                     _TRISD	set	3989
   206   000000                     _TRISC	set	3988
   207   000000                     _TRISB	set	3987
   208   000000                     _LATE	set	3981
   209   000000                     _LATD	set	3980
   210   000000                     _LATC	set	3979
   211   000000                     _LATB	set	3978
   212   000000                     _EEADRH	set	4010
   213                           
   214                           ; #config settings
   215                           
   216                           	psect	cinit
   217   001B94                     __pcinit:
   218                           	callstack 0
   219   001B94                     start_initialization:
   220                           	callstack 0
   221   001B94                     __initialization:
   222                           	callstack 0
   223                           
   224                           ; Initialize objects allocated to COMRAM (42 bytes)
   225                           ; load TBLPTR registers with __pidataCOMRAM
   226   001B94  0EE0               	movlw	low __pidataCOMRAM
   227   001B96  6EF6               	movwf	tblptrl,c
   228   001B98  0E1C               	movlw	high __pidataCOMRAM
   229   001B9A  6EF7               	movwf	tblptrh,c
   230   001B9C  0E00               	movlw	low (__pidataCOMRAM shr (0+16))
   231   001B9E  6EF8               	movwf	tblptru,c
   232   001BA0  EE00  F001         	lfsr	0,__pdataCOMRAM
   233   001BA4  EE10 F02A          	lfsr	1,42
   234   001BA8                     copy_data0:
   235   001BA8  0009               	tblrd		*+
   236   001BAA  CFF5 FFEE          	movff	tablat,postinc0
   237   001BAE  50E5               	movf	postdec1,w,c
   238   001BB0  50E1               	movf	fsr1l,w,c
   239   001BB2  E1FA               	bnz	copy_data0
   240                           
   241                           ; Clear objects allocated to COMRAM (23 bytes)
   242   001BB4  EE00  F04C         	lfsr	0,__pbssCOMRAM
   243   001BB8  0E17               	movlw	23
   244   001BBA                     clear_0:
   245   001BBA  6AEE               	clrf	postinc0,c
   246   001BBC  06E8               	decf	wreg,f,c
   247   001BBE  E1FD               	bnz	clear_0
   248   001BC0                     end_of_initialization:
   249                           	callstack 0
   250   001BC0                     __end_of__initialization:
   251                           	callstack 0
   252   001BC0  9064               	bcf	int$flags,0,c	;clear compiler interrupt flag (level 1)
   253   001BC2  9264               	bcf	int$flags,1,c	;clear compiler interrupt flag (level 2)
   254   001BC4  0100               	movlb	0
   255   001BC6  EF07  F00C         	goto	_main	;jump to C main() function
   256                           
   257                           	psect	bssCOMRAM
   258   00004C                     __pbssCOMRAM:
   259                           	callstack 0
   260   00004C                     _RB7_InterruptHandler_High:
   261                           	callstack 0
   262   00004C                     	ds	2
   263   00004E                     _RB7_InterruptHandler_Low:
   264                           	callstack 0
   265   00004E                     	ds	2
   266   000050                     _RB6_InterruptHandler_High:
   267                           	callstack 0
   268   000050                     	ds	2
   269   000052                     _RB6_InterruptHandler_Low:
   270                           	callstack 0
   271   000052                     	ds	2
   272   000054                     _RB5_InterruptHandler_High:
   273                           	callstack 0
   274   000054                     	ds	2
   275   000056                     _RB5_InterruptHandler_Low:
   276                           	callstack 0
   277   000056                     	ds	2
   278   000058                     _RB4_InterruptHandler_High:
   279                           	callstack 0
   280   000058                     	ds	2
   281   00005A                     _RB4_InterruptHandler_Low:
   282                           	callstack 0
   283   00005A                     	ds	2
   284   00005C                     _INT2_InterruptHandler:
   285                           	callstack 0
   286   00005C                     	ds	2
   287   00005E                     _INT1_InterruptHandler:
   288                           	callstack 0
   289   00005E                     	ds	2
   290   000060                     _INT0_InterruptHandler:
   291                           	callstack 0
   292   000060                     	ds	2
   293   000062                     _program_selected:
   294                           	callstack 0
   295   000062                     	ds	1
   296                           
   297                           	psect	dataCOMRAM
   298   000001                     __pdataCOMRAM:
   299                           	callstack 0
   300   000001                     _port_registers:
   301                           	callstack 0
   302   000001                     	ds	10
   303   00000B                     _lat_registers:
   304                           	callstack 0
   305   00000B                     	ds	10
   306   000015                     _tris_registers:
   307                           	callstack 0
   308   000015                     	ds	10
   309   00001F                     _RB7_flag:
   310                           	callstack 0
   311   00001F                     	ds	1
   312   000020                     _RB6_flag:
   313                           	callstack 0
   314   000020                     	ds	1
   315   000021                     _RB5_flag:
   316                           	callstack 0
   317   000021                     	ds	1
   318   000022                     _RB4_flag:
   319                           	callstack 0
   320   000022                     	ds	1
   321   000023                     _int0_obj:
   322                           	callstack 0
   323   000023                     	ds	6
   324   000029                     _led_2:
   325                           	callstack 0
   326   000029                     	ds	1
   327   00002A                     _led_1:
   328                           	callstack 0
   329   00002A                     	ds	1
   330                           
   331                           	psect	cstackCOMRAM
   332   00002B                     __pcstackCOMRAM:
   333                           	callstack 0
   334   00002B                     gpio_port_read_logic@direction:
   335                           	callstack 0
   336   00002B                     mcal_EEPROM_WriteByte@address:
   337                           	callstack 0
   338                           
   339                           ; 2 bytes @ 0x0
   340   00002B                     	ds	2
   341   00002D                     ??_gpio_port_read_logic:
   342   00002D                     mcal_EEPROM_WriteByte@data:
   343                           	callstack 0
   344                           
   345                           ; 1 bytes @ 0x2
   346   00002D                     	ds	1
   347   00002E                     mcal_EEPROM_WriteByte@Global_Interrupt_Status:
   348                           	callstack 0
   349                           
   350                           ; 1 bytes @ 0x3
   351   00002E                     	ds	1
   352   00002F                     gpio_port_read_logic@ret:
   353                           	callstack 0
   354                           
   355                           ; 1 bytes @ 0x4
   356   00002F                     	ds	1
   357   000030                     gpio_port_read_logic@port:
   358                           	callstack 0
   359                           
   360                           ; 1 bytes @ 0x5
   361   000030                     	ds	1
   362   000031                     RB4_ISR@value:
   363                           	callstack 0
   364   000031                     RB5_ISR@value:
   365                           	callstack 0
   366   000031                     RB6_ISR@value:
   367                           	callstack 0
   368   000031                     RB7_ISR@value:
   369                           	callstack 0
   370                           
   371                           ; 1 bytes @ 0x6
   372   000031                     	ds	1
   373   000032                     RB4_ISR@RB4_Source:
   374                           	callstack 0
   375   000032                     RB5_ISR@RB5_Source:
   376                           	callstack 0
   377   000032                     RB6_ISR@RB6_Source:
   378                           	callstack 0
   379   000032                     RB7_ISR@RB7_Source:
   380                           	callstack 0
   381                           
   382                           ; 1 bytes @ 0x7
   383   000032                     	ds	1
   384   000033                     ??_InterruptManager:
   385                           
   386                           ; 1 bytes @ 0x8
   387   000033                     	ds	8
   388   00003B                     gpio_pin_direction_initialize@_pin_config:
   389                           	callstack 0
   390   00003B                     gpio_pin_write_logic@_pin_config:
   391                           	callstack 0
   392   00003B                     Interrupt_INTx_Enable@_INTx_config:
   393                           	callstack 0
   394   00003B                     Interrupt_INTx_Disable@_INTx_config:
   395                           	callstack 0
   396   00003B                     Interrupt_INTx_Edge_Init@_INTx_config:
   397                           	callstack 0
   398   00003B                     Interrupt_INTx_Clear_Flag@_INTx_config:
   399                           	callstack 0
   400   00003B                     Interrupt_INTx_SetInterruptHandler@_INTx_config:
   401                           	callstack 0
   402   00003B                     mcal_EEPROM_ReadByte@address:
   403                           	callstack 0
   404                           
   405                           ; 2 bytes @ 0x10
   406   00003B                     	ds	2
   407   00003D                     ??_gpio_pin_direction_initialize:
   408   00003D                     ??_Interrupt_INTx_Disable:
   409   00003D                     ??_Interrupt_INTx_Clear_Flag:
   410   00003D                     ??_Interrupt_INTx_Edge_Init:
   411   00003D                     ??_Interrupt_INTx_SetInterruptHandler:
   412   00003D                     ??_Interrupt_INTx_Enable:
   413   00003D                     gpio_pin_write_logic@logic:
   414                           	callstack 0
   415   00003D                     mcal_EEPROM_ReadByte@data:
   416                           	callstack 0
   417                           
   418                           ; 2 bytes @ 0x12
   419   00003D                     	ds	1
   420   00003E                     ??_gpio_pin_write_logic:
   421                           
   422                           ; 1 bytes @ 0x13
   423   00003E                     	ds	1
   424   00003F                     Interrupt_INTx_Enable@ret:
   425                           	callstack 0
   426   00003F                     Interrupt_INTx_Disable@ret:
   427                           	callstack 0
   428   00003F                     Interrupt_INTx_Edge_Init@ret:
   429                           	callstack 0
   430   00003F                     Interrupt_INTx_Clear_Flag@ret:
   431                           	callstack 0
   432   00003F                     Interrupt_INTx_SetInterruptHandler@ret:
   433                           	callstack 0
   434   00003F                     mcal_EEPROM_ReadByte@ret:
   435                           	callstack 0
   436                           
   437                           ; 1 bytes @ 0x14
   438   00003F                     	ds	4
   439   000043                     gpio_pin_direction_initialize@ret:
   440                           	callstack 0
   441                           
   442                           ; 1 bytes @ 0x18
   443   000043                     	ds	1
   444   000044                     gpio_pin_write_logic@ret:
   445                           	callstack 0
   446   000044                     Interrupt_INTx_Pin_Init@_INTx_config:
   447                           	callstack 0
   448                           
   449                           ; 2 bytes @ 0x19
   450   000044                     	ds	1
   451   000045                     ecu_led_turn_off@_led_config:
   452                           	callstack 0
   453   000045                     ecu_led_turn_on@_led_config:
   454                           	callstack 0
   455   000045                     gpio_pin_initialize@_pin_config:
   456                           	callstack 0
   457                           
   458                           ; 2 bytes @ 0x1A
   459   000045                     	ds	1
   460   000046                     ??_Interrupt_INTx_Pin_Init:
   461                           
   462                           ; 1 bytes @ 0x1B
   463   000046                     	ds	1
   464   000047                     ??_gpio_pin_initialize:
   465   000047                     ecu_led_turn_off@ret:
   466                           	callstack 0
   467   000047                     ecu_led_turn_on@ret:
   468                           	callstack 0
   469                           
   470                           ; 1 bytes @ 0x1C
   471   000047                     	ds	1
   472   000048                     ??_program_1:
   473   000048                     ??_program_2:
   474   000048                     gpio_pin_initialize@ret:
   475                           	callstack 0
   476   000048                     Interrupt_INTx_Pin_Init@ret:
   477                           	callstack 0
   478                           
   479                           ; 1 bytes @ 0x1D
   480   000048                     	ds	1
   481   000049                     ecu_led_initialize@_led_config:
   482                           	callstack 0
   483   000049                     mcal_interrupt_INTx_Init@_INTx_config:
   484                           	callstack 0
   485                           
   486                           ; 2 bytes @ 0x1E
   487   000049                     	ds	2
   488   00004B                     ecu_led_initialize@ret:
   489                           	callstack 0
   490   00004B                     mcal_interrupt_INTx_Init@ret:
   491                           	callstack 0
   492                           
   493                           ; 1 bytes @ 0x20
   494   00004B                     	ds	1
   495   00004C                     
   496                           ; 1 bytes @ 0x21
   497 ;;
   498 ;;Main: autosize = 0, tempsize = 0, incstack = 0, save=0
   499 ;;
   500 ;; *************** function _main *****************
   501 ;; Defined at:
   502 ;;		line 49 in file "application.c"
   503 ;; Parameters:    Size  Location     Type
   504 ;;		None
   505 ;; Auto vars:     Size  Location     Type
   506 ;;		None
   507 ;; Return value:  Size  Location     Type
   508 ;;                  2  735[None  ] int 
   509 ;; Registers used:
   510 ;;		wreg, fsr2l, fsr2h, status,2, status,0, prodl, prodh, cstack
   511 ;; Tracked objects:
   512 ;;		On entry : 0/0
   513 ;;		On exit  : 0/0
   514 ;;		Unchanged: 0/0
   515 ;; Data sizes:     COMRAM   BANK0   BANK1   BANK2   BANK3   BANK4   BANK5   BANK6   BANK7   BANK8   BANK9  BANK10  BANK1
      +1  BANK12  BANK13  BANK14  BANK15
   516 ;;      Params:         0       0       0       0       0       0       0       0       0       0       0       0       
      +0       0       0       0       0
   517 ;;      Locals:         0       0       0       0       0       0       0       0       0       0       0       0       
      +0       0       0       0       0
   518 ;;      Temps:          0       0       0       0       0       0       0       0       0       0       0       0       
      +0       0       0       0       0
   519 ;;      Totals:         0       0       0       0       0       0       0       0       0       0       0       0       
      +0       0       0       0       0
   520 ;;Total ram usage:        0 bytes
   521 ;; Hardware stack levels required when called: 9
   522 ;; This function calls:
   523 ;;		_application_initialize
   524 ;;		_ecu_led_turn_off
   525 ;;		_mcal_EEPROM_ReadByte
   526 ;;		_program_1
   527 ;;		_program_2
   528 ;; This function is called by:
   529 ;;		Startup code after reset
   530 ;; This function uses a non-reentrant model
   531 ;;
   532                           
   533                           	psect	text0
   534   00180E                     __ptext0:
   535                           	callstack 0
   536   00180E                     _main:
   537                           	callstack 22
   538   00180E                     
   539                           ;application.c: 51:     application_initialize();
   540   00180E  ECF7  F00E         	call	_application_initialize	;wreg free
   541   001812                     
   542                           ;application.c: 52:     ret = mcal_EEPROM_ReadByte(0x3FF, &program_selected);
   543   001812  0E03               	movlw	3
   544   001814  6E3C               	movwf	(mcal_EEPROM_ReadByte@address+1)^0,c
   545   001816  683B               	setf	mcal_EEPROM_ReadByte@address^0,c
   546   001818  0E62               	movlw	low _program_selected
   547   00181A  6E3D               	movwf	mcal_EEPROM_ReadByte@data^0,c
   548   00181C  0E00               	movlw	high _program_selected
   549   00181E  6E3E               	movwf	(mcal_EEPROM_ReadByte@data+1)^0,c
   550   001820  ECA9  F00D         	call	_mcal_EEPROM_ReadByte	;wreg free
   551   001824  6E63               	movwf	_ret^0,c
   552   001826                     l3902:
   553                           
   554                           ;application.c: 55:     {;application.c: 56:         if(1 == program_selected)
   555   001826  0462               	decf	_program_selected^0,w,c	;volatile
   556   001828  A4D8               	btfss	status,2,c
   557   00182A  EF19  F00C         	goto	u2821
   558   00182E  EF1B  F00C         	goto	u2820
   559   001832                     u2821:
   560   001832  EF1F  F00C         	goto	l3906
   561   001836                     u2820:
   562   001836                     
   563                           ;application.c: 57:         {;application.c: 58:             program_1();
   564   001836  EC61  F00D         	call	_program_1	;wreg free
   565                           
   566                           ;application.c: 59:         }
   567   00183A  EF13  F00C         	goto	l3902
   568   00183E                     l3906:
   569   00183E  0E02               	movlw	2
   570   001840  1862               	xorwf	_program_selected^0,w,c	;volatile
   571   001842  A4D8               	btfss	status,2,c
   572   001844  EF26  F00C         	goto	u2831
   573   001848  EF28  F00C         	goto	u2830
   574   00184C                     u2831:
   575   00184C  EF2C  F00C         	goto	l3910
   576   001850                     u2830:
   577   001850                     
   578                           ;application.c: 61:         {;application.c: 62:             program_2();
   579   001850  EC3C  F00D         	call	_program_2	;wreg free
   580                           
   581                           ;application.c: 63:         }
   582   001854  EF13  F00C         	goto	l3902
   583   001858                     l3910:
   584                           
   585                           ;application.c: 65:         {;application.c: 66:              ret = ecu_led_turn_off(&le
      +                          d_1);
   586   001858  0E2A               	movlw	low _led_1
   587   00185A  6E45               	movwf	ecu_led_turn_off@_led_config^0,c
   588   00185C  0E00               	movlw	high _led_1
   589   00185E  6E46               	movwf	(ecu_led_turn_off@_led_config+1)^0,c
   590   001860  ECFD  F00D         	call	_ecu_led_turn_off	;wreg free
   591   001864  6E63               	movwf	_ret^0,c
   592                           
   593                           ;application.c: 67:              ret = ecu_led_turn_off(&led_2);
   594   001866  0E29               	movlw	low _led_2
   595   001868  6E45               	movwf	ecu_led_turn_off@_led_config^0,c
   596   00186A  0E00               	movlw	high _led_2
   597   00186C  6E46               	movwf	(ecu_led_turn_off@_led_config+1)^0,c
   598   00186E  ECFD  F00D         	call	_ecu_led_turn_off	;wreg free
   599   001872  6E63               	movwf	_ret^0,c
   600   001874  EF13  F00C         	goto	l3902
   601   001878  EF07  F000         	goto	start
   602   00187C                     __end_of_main:
   603                           	callstack 0
   604                           
   605 ;; *************** function _program_2 *****************
   606 ;; Defined at:
   607 ;;		line 20 in file "application.c"
   608 ;; Parameters:    Size  Location     Type
   609 ;;		None
   610 ;; Auto vars:     Size  Location     Type
   611 ;;		None
   612 ;; Return value:  Size  Location     Type
   613 ;;                  1    wreg      void 
   614 ;; Registers used:
   615 ;;		wreg, fsr2l, fsr2h, status,2, status,0, prodl, prodh, cstack
   616 ;; Tracked objects:
   617 ;;		On entry : 0/0
   618 ;;		On exit  : 0/0
   619 ;;		Unchanged: 0/0
   620 ;; Data sizes:     COMRAM   BANK0   BANK1   BANK2   BANK3   BANK4   BANK5   BANK6   BANK7   BANK8   BANK9  BANK10  BANK1
      +1  BANK12  BANK13  BANK14  BANK15
   621 ;;      Params:         0       0       0       0       0       0       0       0       0       0       0       0       
      +0       0       0       0       0
   622 ;;      Locals:         0       0       0       0       0       0       0       0       0       0       0       0       
      +0       0       0       0       0
   623 ;;      Temps:          2       0       0       0       0       0       0       0       0       0       0       0       
      +0       0       0       0       0
   624 ;;      Totals:         2       0       0       0       0       0       0       0       0       0       0       0       
      +0       0       0       0       0
   625 ;;Total ram usage:        2 bytes
   626 ;; Hardware stack levels used: 1
   627 ;; Hardware stack levels required when called: 6
   628 ;; This function calls:
   629 ;;		_ecu_led_turn_off
   630 ;;		_ecu_led_turn_on
   631 ;; This function is called by:
   632 ;;		_main
   633 ;; This function uses a non-reentrant model
   634 ;;
   635                           
   636                           	psect	text1
   637   001A78                     __ptext1:
   638                           	callstack 0
   639   001A78                     _program_2:
   640                           	callstack 24
   641   001A78                     
   642                           ;application.c: 21:     ret = ecu_led_turn_on(&led_2);
   643   001A78  0E29               	movlw	low _led_2
   644   001A7A  6E45               	movwf	ecu_led_turn_on@_led_config^0,c
   645   001A7C  0E00               	movlw	high _led_2
   646   001A7E  6E46               	movwf	(ecu_led_turn_on@_led_config+1)^0,c
   647   001A80  ECE5  F00D         	call	_ecu_led_turn_on	;wreg free
   648   001A84  6E63               	movwf	_ret^0,c
   649   001A86                     
   650                           ;application.c: 22:     _delay((unsigned long)((250)*(4000000UL/4000.0)));
   651   001A86  0E02               	movlw	2
   652   001A88  6E49               	movwf	(??_program_2+1)^0,c
   653   001A8A  0E45               	movlw	69
   654   001A8C  6E48               	movwf	??_program_2^0,c
   655   001A8E  0EAA               	movlw	170
   656   001A90                     u2847:
   657   001A90  2EE8               	decfsz	wreg,f,c
   658   001A92  D7FE               	bra	u2847
   659   001A94  2E48               	decfsz	??_program_2^0,f,c
   660   001A96  D7FC               	bra	u2847
   661   001A98  2E49               	decfsz	(??_program_2+1)^0,f,c
   662   001A9A  D7FA               	bra	u2847
   663   001A9C                     
   664                           ;application.c: 23:     ret = ecu_led_turn_off(&led_2);
   665   001A9C  0E29               	movlw	low _led_2
   666   001A9E  6E45               	movwf	ecu_led_turn_off@_led_config^0,c
   667   001AA0  0E00               	movlw	high _led_2
   668   001AA2  6E46               	movwf	(ecu_led_turn_off@_led_config+1)^0,c
   669   001AA4  ECFD  F00D         	call	_ecu_led_turn_off	;wreg free
   670   001AA8  6E63               	movwf	_ret^0,c
   671                           
   672                           ;application.c: 24:     _delay((unsigned long)((250)*(4000000UL/4000.0)));
   673   001AAA  0E02               	movlw	2
   674   001AAC  6E49               	movwf	(??_program_2+1)^0,c
   675   001AAE  0E45               	movlw	69
   676   001AB0  6E48               	movwf	??_program_2^0,c
   677   001AB2  0EAA               	movlw	170
   678   001AB4                     u2857:
   679   001AB4  2EE8               	decfsz	wreg,f,c
   680   001AB6  D7FE               	bra	u2857
   681   001AB8  2E48               	decfsz	??_program_2^0,f,c
   682   001ABA  D7FC               	bra	u2857
   683   001ABC  2E49               	decfsz	(??_program_2+1)^0,f,c
   684   001ABE  D7FA               	bra	u2857
   685   001AC0  0012               	return		;funcret
   686   001AC2                     __end_of_program_2:
   687                           	callstack 0
   688                           
   689 ;; *************** function _program_1 *****************
   690 ;; Defined at:
   691 ;;		line 13 in file "application.c"
   692 ;; Parameters:    Size  Location     Type
   693 ;;		None
   694 ;; Auto vars:     Size  Location     Type
   695 ;;		None
   696 ;; Return value:  Size  Location     Type
   697 ;;                  1    wreg      void 
   698 ;; Registers used:
   699 ;;		wreg, fsr2l, fsr2h, status,2, status,0, prodl, prodh, cstack
   700 ;; Tracked objects:
   701 ;;		On entry : 0/0
   702 ;;		On exit  : 0/0
   703 ;;		Unchanged: 0/0
   704 ;; Data sizes:     COMRAM   BANK0   BANK1   BANK2   BANK3   BANK4   BANK5   BANK6   BANK7   BANK8   BANK9  BANK10  BANK1
      +1  BANK12  BANK13  BANK14  BANK15
   705 ;;      Params:         0       0       0       0       0       0       0       0       0       0       0       0       
      +0       0       0       0       0
   706 ;;      Locals:         0       0       0       0       0       0       0       0       0       0       0       0       
      +0       0       0       0       0
   707 ;;      Temps:          2       0       0       0       0       0       0       0       0       0       0       0       
      +0       0       0       0       0
   708 ;;      Totals:         2       0       0       0       0       0       0       0       0       0       0       0       
      +0       0       0       0       0
   709 ;;Total ram usage:        2 bytes
   710 ;; Hardware stack levels used: 1
   711 ;; Hardware stack levels required when called: 6
   712 ;; This function calls:
   713 ;;		_ecu_led_turn_off
   714 ;;		_ecu_led_turn_on
   715 ;; This function is called by:
   716 ;;		_main
   717 ;; This function uses a non-reentrant model
   718 ;;
   719                           
   720                           	psect	text2
   721   001AC2                     __ptext2:
   722                           	callstack 0
   723   001AC2                     _program_1:
   724                           	callstack 24
   725   001AC2                     
   726                           ;application.c: 14:     ret = ecu_led_turn_on(&led_1);
   727   001AC2  0E2A               	movlw	low _led_1
   728   001AC4  6E45               	movwf	ecu_led_turn_on@_led_config^0,c
   729   001AC6  0E00               	movlw	high _led_1
   730   001AC8  6E46               	movwf	(ecu_led_turn_on@_led_config+1)^0,c
   731   001ACA  ECE5  F00D         	call	_ecu_led_turn_on	;wreg free
   732   001ACE  6E63               	movwf	_ret^0,c
   733   001AD0                     
   734                           ;application.c: 15:     _delay((unsigned long)((250)*(4000000UL/4000.0)));
   735   001AD0  0E02               	movlw	2
   736   001AD2  6E49               	movwf	(??_program_1+1)^0,c
   737   001AD4  0E45               	movlw	69
   738   001AD6  6E48               	movwf	??_program_1^0,c
   739   001AD8  0EAA               	movlw	170
   740   001ADA                     u2867:
   741   001ADA  2EE8               	decfsz	wreg,f,c
   742   001ADC  D7FE               	bra	u2867
   743   001ADE  2E48               	decfsz	??_program_1^0,f,c
   744   001AE0  D7FC               	bra	u2867
   745   001AE2  2E49               	decfsz	(??_program_1+1)^0,f,c
   746   001AE4  D7FA               	bra	u2867
   747   001AE6                     
   748                           ;application.c: 16:     ret = ecu_led_turn_off(&led_1);
   749   001AE6  0E2A               	movlw	low _led_1
   750   001AE8  6E45               	movwf	ecu_led_turn_off@_led_config^0,c
   751   001AEA  0E00               	movlw	high _led_1
   752   001AEC  6E46               	movwf	(ecu_led_turn_off@_led_config+1)^0,c
   753   001AEE  ECFD  F00D         	call	_ecu_led_turn_off	;wreg free
   754   001AF2  6E63               	movwf	_ret^0,c
   755                           
   756                           ;application.c: 17:     _delay((unsigned long)((250)*(4000000UL/4000.0)));
   757   001AF4  0E02               	movlw	2
   758   001AF6  6E49               	movwf	(??_program_1+1)^0,c
   759   001AF8  0E45               	movlw	69
   760   001AFA  6E48               	movwf	??_program_1^0,c
   761   001AFC  0EAA               	movlw	170
   762   001AFE                     u2877:
   763   001AFE  2EE8               	decfsz	wreg,f,c
   764   001B00  D7FE               	bra	u2877
   765   001B02  2E48               	decfsz	??_program_1^0,f,c
   766   001B04  D7FC               	bra	u2877
   767   001B06  2E49               	decfsz	(??_program_1+1)^0,f,c
   768   001B08  D7FA               	bra	u2877
   769   001B0A  0012               	return		;funcret
   770   001B0C                     __end_of_program_1:
   771                           	callstack 0
   772                           
   773 ;; *************** function _ecu_led_turn_on *****************
   774 ;; Defined at:
   775 ;;		line 59 in file "ECU_Layer/LED/ecu_led.c"
   776 ;; Parameters:    Size  Location     Type
   777 ;;  _led_config     2   26[COMRAM] PTR const struct .
   778 ;;		 -> led_2(1), led_1(1), 
   779 ;; Auto vars:     Size  Location     Type
   780 ;;  ret             1   28[COMRAM] unsigned char 
   781 ;; Return value:  Size  Location     Type
   782 ;;                  1    wreg      unsigned char 
   783 ;; Registers used:
   784 ;;		wreg, fsr2l, fsr2h, status,2, status,0, prodl, prodh, cstack
   785 ;; Tracked objects:
   786 ;;		On entry : 0/0
   787 ;;		On exit  : 0/0
   788 ;;		Unchanged: 0/0
   789 ;; Data sizes:     COMRAM   BANK0   BANK1   BANK2   BANK3   BANK4   BANK5   BANK6   BANK7   BANK8   BANK9  BANK10  BANK1
      +1  BANK12  BANK13  BANK14  BANK15
   790 ;;      Params:         2       0       0       0       0       0       0       0       0       0       0       0       
      +0       0       0       0       0
   791 ;;      Locals:         1       0       0       0       0       0       0       0       0       0       0       0       
      +0       0       0       0       0
   792 ;;      Temps:          0       0       0       0       0       0       0       0       0       0       0       0       
      +0       0       0       0       0
   793 ;;      Totals:         3       0       0       0       0       0       0       0       0       0       0       0       
      +0       0       0       0       0
   794 ;;Total ram usage:        3 bytes
   795 ;; Hardware stack levels used: 1
   796 ;; Hardware stack levels required when called: 5
   797 ;; This function calls:
   798 ;;		_gpio_pin_write_logic
   799 ;; This function is called by:
   800 ;;		_program_1
   801 ;;		_program_2
   802 ;; This function uses a non-reentrant model
   803 ;;
   804                           
   805                           	psect	text3
   806   001BCA                     __ptext3:
   807                           	callstack 0
   808   001BCA                     _ecu_led_turn_on:
   809                           	callstack 24
   810   001BCA                     
   811                           ;ECU_Layer/LED/ecu_led.c: 63:     if(((void*)0) == _led_config)
   812   001BCA  5045               	movf	ecu_led_turn_on@_led_config^0,w,c
   813   001BCC  1046               	iorwf	(ecu_led_turn_on@_led_config+1)^0,w,c
   814   001BCE  A4D8               	btfss	status,2,c
   815   001BD0  EFEC  F00D         	goto	u1821
   816   001BD4  EFEE  F00D         	goto	u1820
   817   001BD8                     u1821:
   818   001BD8  EFF2  F00D         	goto	l3122
   819   001BDC                     u1820:
   820   001BDC                     
   821                           ;ECU_Layer/LED/ecu_led.c: 64:     {;ECU_Layer/LED/ecu_led.c: 65:         ret = (Std_Retu
      +                          rnType)0x00;
   822   001BDC  0E00               	movlw	0
   823   001BDE  6E47               	movwf	ecu_led_turn_on@ret^0,c
   824                           
   825                           ;ECU_Layer/LED/ecu_led.c: 66:     }
   826   001BE0  EFFB  F00D         	goto	l3124
   827   001BE4                     l3122:
   828                           
   829                           ;ECU_Layer/LED/ecu_led.c: 69:     {;ECU_Layer/LED/ecu_led.c: 70:         ret = gpio_pin_
      +                          write_logic(&_led_config->led_pin, GPIO_HIGH);
   830   001BE4  C045  F03B         	movff	ecu_led_turn_on@_led_config,gpio_pin_write_logic@_pin_config
   831   001BE8  C046  F03C         	movff	ecu_led_turn_on@_led_config+1,gpio_pin_write_logic@_pin_config+1
   832   001BEC  0E01               	movlw	1
   833   001BEE  6E3D               	movwf	gpio_pin_write_logic@logic^0,c
   834   001BF0  EC18  F00A         	call	_gpio_pin_write_logic	;wreg free
   835   001BF4  6E47               	movwf	ecu_led_turn_on@ret^0,c
   836   001BF6                     l3124:
   837                           
   838                           ;ECU_Layer/LED/ecu_led.c: 73:     return ret;
   839   001BF6  5047               	movf	ecu_led_turn_on@ret^0,w,c
   840   001BF8  0012               	return		;funcret
   841   001BFA                     __end_of_ecu_led_turn_on:
   842                           	callstack 0
   843                           
   844 ;; *************** function _ecu_led_turn_off *****************
   845 ;; Defined at:
   846 ;;		line 37 in file "ECU_Layer/LED/ecu_led.c"
   847 ;; Parameters:    Size  Location     Type
   848 ;;  _led_config     2   26[COMRAM] PTR const struct .
   849 ;;		 -> led_2(1), led_1(1), 
   850 ;; Auto vars:     Size  Location     Type
   851 ;;  ret             1   28[COMRAM] unsigned char 
   852 ;; Return value:  Size  Location     Type
   853 ;;                  1    wreg      unsigned char 
   854 ;; Registers used:
   855 ;;		wreg, fsr2l, fsr2h, status,2, status,0, prodl, prodh, cstack
   856 ;; Tracked objects:
   857 ;;		On entry : 0/0
   858 ;;		On exit  : 0/0
   859 ;;		Unchanged: 0/0
   860 ;; Data sizes:     COMRAM   BANK0   BANK1   BANK2   BANK3   BANK4   BANK5   BANK6   BANK7   BANK8   BANK9  BANK10  BANK1
      +1  BANK12  BANK13  BANK14  BANK15
   861 ;;      Params:         2       0       0       0       0       0       0       0       0       0       0       0       
      +0       0       0       0       0
   862 ;;      Locals:         1       0       0       0       0       0       0       0       0       0       0       0       
      +0       0       0       0       0
   863 ;;      Temps:          0       0       0       0       0       0       0       0       0       0       0       0       
      +0       0       0       0       0
   864 ;;      Totals:         3       0       0       0       0       0       0       0       0       0       0       0       
      +0       0       0       0       0
   865 ;;Total ram usage:        3 bytes
   866 ;; Hardware stack levels used: 1
   867 ;; Hardware stack levels required when called: 5
   868 ;; This function calls:
   869 ;;		_gpio_pin_write_logic
   870 ;; This function is called by:
   871 ;;		_program_1
   872 ;;		_program_2
   873 ;;		_main
   874 ;; This function uses a non-reentrant model
   875 ;;
   876                           
   877                           	psect	text4
   878   001BFA                     __ptext4:
   879                           	callstack 0
   880   001BFA                     _ecu_led_turn_off:
   881                           	callstack 24
   882   001BFA                     
   883                           ;ECU_Layer/LED/ecu_led.c: 41:     if(((void*)0) == _led_config)
   884   001BFA  5045               	movf	ecu_led_turn_off@_led_config^0,w,c
   885   001BFC  1046               	iorwf	(ecu_led_turn_off@_led_config+1)^0,w,c
   886   001BFE  A4D8               	btfss	status,2,c
   887   001C00  EF04  F00E         	goto	u1811
   888   001C04  EF06  F00E         	goto	u1810
   889   001C08                     u1811:
   890   001C08  EF0A  F00E         	goto	l3110
   891   001C0C                     u1810:
   892   001C0C                     
   893                           ;ECU_Layer/LED/ecu_led.c: 42:     {;ECU_Layer/LED/ecu_led.c: 43:         ret = (Std_Retu
      +                          rnType)0x00;
   894   001C0C  0E00               	movlw	0
   895   001C0E  6E47               	movwf	ecu_led_turn_off@ret^0,c
   896                           
   897                           ;ECU_Layer/LED/ecu_led.c: 44:     }
   898   001C10  EF13  F00E         	goto	l3112
   899   001C14                     l3110:
   900                           
   901                           ;ECU_Layer/LED/ecu_led.c: 47:     {;ECU_Layer/LED/ecu_led.c: 48:         ret = gpio_pin_
      +                          write_logic(&_led_config->led_pin, GPIO_LOW);
   902   001C14  C045  F03B         	movff	ecu_led_turn_off@_led_config,gpio_pin_write_logic@_pin_config
   903   001C18  C046  F03C         	movff	ecu_led_turn_off@_led_config+1,gpio_pin_write_logic@_pin_config+1
   904   001C1C  0E00               	movlw	0
   905   001C1E  6E3D               	movwf	gpio_pin_write_logic@logic^0,c
   906   001C20  EC18  F00A         	call	_gpio_pin_write_logic	;wreg free
   907   001C24  6E47               	movwf	ecu_led_turn_off@ret^0,c
   908   001C26                     l3112:
   909                           
   910                           ;ECU_Layer/LED/ecu_led.c: 51:     return ret;
   911   001C26  5047               	movf	ecu_led_turn_off@ret^0,w,c
   912   001C28  0012               	return		;funcret
   913   001C2A                     __end_of_ecu_led_turn_off:
   914                           	callstack 0
   915                           
   916 ;; *************** function _mcal_EEPROM_ReadByte *****************
   917 ;; Defined at:
   918 ;;		line 44 in file "MCAL_Layer/EEPROM/mcal_eeprom.c"
   919 ;; Parameters:    Size  Location     Type
   920 ;;  address         2   16[COMRAM] unsigned short 
   921 ;;  data            2   18[COMRAM] PTR unsigned char 
   922 ;;		 -> program_selected(1), 
   923 ;; Auto vars:     Size  Location     Type
   924 ;;  ret             1   20[COMRAM] unsigned char 
   925 ;; Return value:  Size  Location     Type
   926 ;;                  1    wreg      unsigned char 
   927 ;; Registers used:
   928 ;;		wreg, fsr2l, fsr2h, status,2, status,0
   929 ;; Tracked objects:
   930 ;;		On entry : 0/0
   931 ;;		On exit  : 0/0
   932 ;;		Unchanged: 0/0
   933 ;; Data sizes:     COMRAM   BANK0   BANK1   BANK2   BANK3   BANK4   BANK5   BANK6   BANK7   BANK8   BANK9  BANK10  BANK1
      +1  BANK12  BANK13  BANK14  BANK15
   934 ;;      Params:         4       0       0       0       0       0       0       0       0       0       0       0       
      +0       0       0       0       0
   935 ;;      Locals:         1       0       0       0       0       0       0       0       0       0       0       0       
      +0       0       0       0       0
   936 ;;      Temps:          0       0       0       0       0       0       0       0       0       0       0       0       
      +0       0       0       0       0
   937 ;;      Totals:         5       0       0       0       0       0       0       0       0       0       0       0       
      +0       0       0       0       0
   938 ;;Total ram usage:        5 bytes
   939 ;; Hardware stack levels used: 1
   940 ;; Hardware stack levels required when called: 4
   941 ;; This function calls:
   942 ;;		Nothing
   943 ;; This function is called by:
   944 ;;		_main
   945 ;; This function uses a non-reentrant model
   946 ;;
   947                           
   948                           	psect	text5
   949   001B52                     __ptext5:
   950                           	callstack 0
   951   001B52                     _mcal_EEPROM_ReadByte:
   952                           	callstack 26
   953   001B52                     
   954                           ;MCAL_Layer/EEPROM/mcal_eeprom.c: 44: Std_ReturnType mcal_EEPROM_ReadByte(uint16 address
      +                          , uint8* data);MCAL_Layer/EEPROM/mcal_eeprom.c: 45: {;MCAL_Layer/EEPROM/mcal_eeprom.c: 4
      +                          6:     Std_ReturnType ret = (Std_ReturnType)0x01;
   955   001B52  0E01               	movlw	1
   956   001B54  6E3F               	movwf	mcal_EEPROM_ReadByte@ret^0,c
   957   001B56                     
   958                           ;MCAL_Layer/EEPROM/mcal_eeprom.c: 48:     if(((void*)0) == data)
   959   001B56  503D               	movf	mcal_EEPROM_ReadByte@data^0,w,c
   960   001B58  103E               	iorwf	(mcal_EEPROM_ReadByte@data+1)^0,w,c
   961   001B5A  A4D8               	btfss	status,2,c
   962   001B5C  EFB2  F00D         	goto	u2091
   963   001B60  EFB4  F00D         	goto	u2090
   964   001B64                     u2091:
   965   001B64  EFB8  F00D         	goto	l769
   966   001B68                     u2090:
   967   001B68                     
   968                           ;MCAL_Layer/EEPROM/mcal_eeprom.c: 49:     {;MCAL_Layer/EEPROM/mcal_eeprom.c: 50:        
      +                           ret = (Std_ReturnType)0x00;
   969   001B68  0E00               	movlw	0
   970   001B6A  6E3F               	movwf	mcal_EEPROM_ReadByte@ret^0,c
   971                           
   972                           ;MCAL_Layer/EEPROM/mcal_eeprom.c: 51:     }
   973   001B6C  EFC8  F00D         	goto	l3388
   974   001B70                     l769:
   975                           
   976                           ;MCAL_Layer/EEPROM/mcal_eeprom.c: 53:     {;MCAL_Layer/EEPROM/mcal_eeprom.c: 55:        
      +                           EEADR = (uint8)(address & 0xFF);
   977   001B70  C03B  FFA9         	movff	mcal_EEPROM_ReadByte@address,4009	;volatile
   978   001B74                     
   979                           ;MCAL_Layer/EEPROM/mcal_eeprom.c: 56:         EEADRH = (uint8)((address >> 8) & 0x03);
   980   001B74  503C               	movf	(mcal_EEPROM_ReadByte@address+1)^0,w,c
   981   001B76  0B03               	andlw	3
   982   001B78  6EAA               	movwf	170,c	;volatile
   983   001B7A                     
   984                           ;MCAL_Layer/EEPROM/mcal_eeprom.c: 58:         EECON1bits.EEPGD = 0;
   985   001B7A  9EA6               	bcf	166,7,c	;volsfr
   986   001B7C                     
   987                           ;MCAL_Layer/EEPROM/mcal_eeprom.c: 59:         EECON1bits.CFGS = 0;
   988   001B7C  9CA6               	bcf	166,6,c	;volsfr
   989   001B7E                     
   990                           ;MCAL_Layer/EEPROM/mcal_eeprom.c: 61:         EECON1bits.RD = 1;
   991   001B7E  80A6               	bsf	166,0,c	;volsfr
   992   001B80                     
   993                           ;MCAL_Layer/EEPROM/mcal_eeprom.c: 62:         __nop();
   994   001B80  F000               	nop	
   995   001B82                     
   996                           ;MCAL_Layer/EEPROM/mcal_eeprom.c: 63:         __nop();
   997   001B82  F000               	nop	
   998   001B84                     
   999                           ;MCAL_Layer/EEPROM/mcal_eeprom.c: 65:         *data = EEDATA;
  1000   001B84  C03D  FFD9         	movff	mcal_EEPROM_ReadByte@data,fsr2l
  1001   001B88  C03E  FFDA         	movff	mcal_EEPROM_ReadByte@data+1,fsr2h
  1002   001B8C  CFA8 FFDF          	movff	4008,indf2	;volatile
  1003   001B90                     l3388:
  1004                           
  1005                           ;MCAL_Layer/EEPROM/mcal_eeprom.c: 68:     return ret;
  1006   001B90  503F               	movf	mcal_EEPROM_ReadByte@ret^0,w,c
  1007   001B92  0012               	return		;funcret
  1008   001B94                     __end_of_mcal_EEPROM_ReadByte:
  1009                           	callstack 0
  1010                           
  1011 ;; *************** function _application_initialize *****************
  1012 ;; Defined at:
  1013 ;;		line 74 in file "application.c"
  1014 ;; Parameters:    Size  Location     Type
  1015 ;;		None
  1016 ;; Auto vars:     Size  Location     Type
  1017 ;;		None
  1018 ;; Return value:  Size  Location     Type
  1019 ;;                  1    wreg      void 
  1020 ;; Registers used:
  1021 ;;		wreg, fsr2l, fsr2h, status,2, status,0, prodl, prodh, cstack
  1022 ;; Tracked objects:
  1023 ;;		On entry : 0/0
  1024 ;;		On exit  : 0/0
  1025 ;;		Unchanged: 0/0
  1026 ;; Data sizes:     COMRAM   BANK0   BANK1   BANK2   BANK3   BANK4   BANK5   BANK6   BANK7   BANK8   BANK9  BANK10  BANK1
      +1  BANK12  BANK13  BANK14  BANK15
  1027 ;;      Params:         0       0       0       0       0       0       0       0       0       0       0       0       
      +0       0       0       0       0
  1028 ;;      Locals:         0       0       0       0       0       0       0       0       0       0       0       0       
      +0       0       0       0       0
  1029 ;;      Temps:          0       0       0       0       0       0       0       0       0       0       0       0       
      +0       0       0       0       0
  1030 ;;      Totals:         0       0       0       0       0       0       0       0       0       0       0       0       
      +0       0       0       0       0
  1031 ;;Total ram usage:        0 bytes
  1032 ;; Hardware stack levels used: 1
  1033 ;; Hardware stack levels required when called: 8
  1034 ;; This function calls:
  1035 ;;		_ecu_layer_initialize
  1036 ;;		_mcal_interrupt_INTx_Init
  1037 ;; This function is called by:
  1038 ;;		_main
  1039 ;; This function uses a non-reentrant model
  1040 ;;
  1041                           
  1042                           	psect	text6
  1043   001DEE                     __ptext6:
  1044                           	callstack 0
  1045   001DEE                     _application_initialize:
  1046                           	callstack 22
  1047   001DEE                     
  1048                           ;application.c: 76:     ecu_layer_initialize();
  1049   001DEE  ECEA  F00E         	call	_ecu_layer_initialize	;wreg free
  1050                           
  1051                           ;application.c: 77:     ret = mcal_interrupt_INTx_Init(&int0_obj);
  1052   001DF2  0E23               	movlw	low _int0_obj
  1053   001DF4  6E49               	movwf	mcal_interrupt_INTx_Init@_INTx_config^0,c
  1054   001DF6  0E00               	movlw	high _int0_obj
  1055   001DF8  6E4A               	movwf	(mcal_interrupt_INTx_Init@_INTx_config+1)^0,c
  1056   001DFA  ECCE  F00B         	call	_mcal_interrupt_INTx_Init	;wreg free
  1057   001DFE  6E63               	movwf	_ret^0,c
  1058   001E00  0012               	return		;funcret
  1059   001E02                     __end_of_application_initialize:
  1060                           	callstack 0
  1061                           
  1062 ;; *************** function _mcal_interrupt_INTx_Init *****************
  1063 ;; Defined at:
  1064 ;;		line 38 in file "MCAL_Layer/Interrupt/mcal_external_interrupt.c"
  1065 ;; Parameters:    Size  Location     Type
  1066 ;;  _INTx_config    2   30[COMRAM] PTR const struct .
  1067 ;;		 -> int0_obj(6), 
  1068 ;; Auto vars:     Size  Location     Type
  1069 ;;  ret             1   32[COMRAM] unsigned char 
  1070 ;; Return value:  Size  Location     Type
  1071 ;;                  1    wreg      unsigned char 
  1072 ;; Registers used:
  1073 ;;		wreg, fsr2l, fsr2h, status,2, status,0, prodl, prodh, cstack
  1074 ;; Tracked objects:
  1075 ;;		On entry : 0/0
  1076 ;;		On exit  : 0/0
  1077 ;;		Unchanged: 0/0
  1078 ;; Data sizes:     COMRAM   BANK0   BANK1   BANK2   BANK3   BANK4   BANK5   BANK6   BANK7   BANK8   BANK9  BANK10  BANK1
      +1  BANK12  BANK13  BANK14  BANK15
  1079 ;;      Params:         2       0       0       0       0       0       0       0       0       0       0       0       
      +0       0       0       0       0
  1080 ;;      Locals:         1       0       0       0       0       0       0       0       0       0       0       0       
      +0       0       0       0       0
  1081 ;;      Temps:          0       0       0       0       0       0       0       0       0       0       0       0       
      +0       0       0       0       0
  1082 ;;      Totals:         3       0       0       0       0       0       0       0       0       0       0       0       
      +0       0       0       0       0
  1083 ;;Total ram usage:        3 bytes
  1084 ;; Hardware stack levels used: 1
  1085 ;; Hardware stack levels required when called: 6
  1086 ;; This function calls:
  1087 ;;		_Interrupt_INTx_Clear_Flag
  1088 ;;		_Interrupt_INTx_Disable
  1089 ;;		_Interrupt_INTx_Edge_Init
  1090 ;;		_Interrupt_INTx_Enable
  1091 ;;		_Interrupt_INTx_Pin_Init
  1092 ;;		_Interrupt_INTx_SetInterruptHandler
  1093 ;; This function is called by:
  1094 ;;		_application_initialize
  1095 ;; This function uses a non-reentrant model
  1096 ;;
  1097                           
  1098                           	psect	text7
  1099   00179C                     __ptext7:
  1100                           	callstack 0
  1101   00179C                     _mcal_interrupt_INTx_Init:
  1102                           	callstack 23
  1103   00179C                     
  1104                           ;MCAL_Layer/Interrupt/mcal_external_interrupt.c: 42:     if(((void*)0) == _INTx_config)
  1105   00179C  5049               	movf	mcal_interrupt_INTx_Init@_INTx_config^0,w,c
  1106   00179E  104A               	iorwf	(mcal_interrupt_INTx_Init@_INTx_config+1)^0,w,c
  1107   0017A0  A4D8               	btfss	status,2,c
  1108   0017A2  EFD5  F00B         	goto	u1851
  1109   0017A6  EFD7  F00B         	goto	u1850
  1110   0017AA                     u1851:
  1111   0017AA  EFDB  F00B         	goto	l3154
  1112   0017AE                     u1850:
  1113   0017AE                     
  1114                           ;MCAL_Layer/Interrupt/mcal_external_interrupt.c: 43:     {;MCAL_Layer/Interrupt/mcal_ext
      +                          ernal_interrupt.c: 44:         ret = (Std_ReturnType)0x00;
  1115   0017AE  0E00               	movlw	0
  1116   0017B0  6E4B               	movwf	mcal_interrupt_INTx_Init@ret^0,c
  1117                           
  1118                           ;MCAL_Layer/Interrupt/mcal_external_interrupt.c: 45:     }
  1119   0017B2  EF05  F00C         	goto	l3162
  1120   0017B6                     l3154:
  1121                           
  1122                           ;MCAL_Layer/Interrupt/mcal_external_interrupt.c: 48:     {;MCAL_Layer/Interrupt/mcal_ext
      +                          ernal_interrupt.c: 50:         ret = Interrupt_INTx_Disable(_INTx_config);
  1123   0017B6  C049  F03B         	movff	mcal_interrupt_INTx_Init@_INTx_config,Interrupt_INTx_Disable@_INTx_config
  1124   0017BA  C04A  F03C         	movff	mcal_interrupt_INTx_Init@_INTx_config+1,Interrupt_INTx_Disable@_INTx_config+1
  1125   0017BE  ECA8  F00C         	call	_Interrupt_INTx_Disable	;wreg free
  1126   0017C2  6E4B               	movwf	mcal_interrupt_INTx_Init@ret^0,c
  1127                           
  1128                           ;MCAL_Layer/Interrupt/mcal_external_interrupt.c: 52:         ret |= Interrupt_INTx_Clear
      +                          _Flag(_INTx_config);
  1129   0017C4  C049  F03B         	movff	mcal_interrupt_INTx_Init@_INTx_config,Interrupt_INTx_Clear_Flag@_INTx_config
  1130   0017C8  C04A  F03C         	movff	mcal_interrupt_INTx_Init@_INTx_config+1,Interrupt_INTx_Clear_Flag@_INTx_config+1
  1131   0017CC  ECDA  F00C         	call	_Interrupt_INTx_Clear_Flag	;wreg free
  1132   0017D0  124B               	iorwf	mcal_interrupt_INTx_Init@ret^0,f,c
  1133                           
  1134                           ;MCAL_Layer/Interrupt/mcal_external_interrupt.c: 54:         ret |= Interrupt_INTx_Edge_
      +                          Init(_INTx_config);
  1135   0017D2  C049  F03B         	movff	mcal_interrupt_INTx_Init@_INTx_config,Interrupt_INTx_Edge_Init@_INTx_config
  1136   0017D6  C04A  F03C         	movff	mcal_interrupt_INTx_Init@_INTx_config+1,Interrupt_INTx_Edge_Init@_INTx_config+1
  1137   0017DA  ECAE  F00A         	call	_Interrupt_INTx_Edge_Init	;wreg free
  1138   0017DE  124B               	iorwf	mcal_interrupt_INTx_Init@ret^0,f,c
  1139   0017E0                     
  1140                           ;MCAL_Layer/Interrupt/mcal_external_interrupt.c: 60:         ret |= Interrupt_INTx_Pin_I
      +                          nit(_INTx_config);
  1141   0017E0  C049  F044         	movff	mcal_interrupt_INTx_Init@_INTx_config,Interrupt_INTx_Pin_Init@_INTx_config
  1142   0017E4  C04A  F045         	movff	mcal_interrupt_INTx_Init@_INTx_config+1,Interrupt_INTx_Pin_Init@_INTx_config+1
  1143   0017E8  EC8C  F00B         	call	_Interrupt_INTx_Pin_Init	;wreg free
  1144   0017EC  124B               	iorwf	mcal_interrupt_INTx_Init@ret^0,f,c
  1145   0017EE                     
  1146                           ;MCAL_Layer/Interrupt/mcal_external_interrupt.c: 62:         ret |= Interrupt_INTx_SetIn
      +                          terruptHandler(_INTx_config);
  1147   0017EE  C049  F03B         	movff	mcal_interrupt_INTx_Init@_INTx_config,Interrupt_INTx_SetInterruptHandler@_INTx_co
      +                          nfig
  1148   0017F2  C04A  F03C         	movff	mcal_interrupt_INTx_Init@_INTx_config+1,Interrupt_INTx_SetInterruptHandler@_INTx_
      +                          config+1
  1149   0017F6  EC3F  F00B         	call	_Interrupt_INTx_SetInterruptHandler	;wreg free
  1150   0017FA  124B               	iorwf	mcal_interrupt_INTx_Init@ret^0,f,c
  1151   0017FC                     
  1152                           ;MCAL_Layer/Interrupt/mcal_external_interrupt.c: 64:         ret |= Interrupt_INTx_Enabl
      +                          e(_INTx_config);
  1153   0017FC  C049  F03B         	movff	mcal_interrupt_INTx_Init@_INTx_config,Interrupt_INTx_Enable@_INTx_config
  1154   001800  C04A  F03C         	movff	mcal_interrupt_INTx_Init@_INTx_config+1,Interrupt_INTx_Enable@_INTx_config+1
  1155   001804  EC74  F00C         	call	_Interrupt_INTx_Enable	;wreg free
  1156   001808  124B               	iorwf	mcal_interrupt_INTx_Init@ret^0,f,c
  1157   00180A                     l3162:
  1158                           
  1159                           ;MCAL_Layer/Interrupt/mcal_external_interrupt.c: 67:     return ret;
  1160   00180A  504B               	movf	mcal_interrupt_INTx_Init@ret^0,w,c
  1161   00180C  0012               	return		;funcret
  1162   00180E                     __end_of_mcal_interrupt_INTx_Init:
  1163                           	callstack 0
  1164                           
  1165 ;; *************** function _Interrupt_INTx_SetInterruptHandler *****************
  1166 ;; Defined at:
  1167 ;;		line 522 in file "MCAL_Layer/Interrupt/mcal_external_interrupt.c"
  1168 ;; Parameters:    Size  Location     Type
  1169 ;;  _INTx_config    2   16[COMRAM] PTR const struct .
  1170 ;;		 -> int0_obj(6), 
  1171 ;; Auto vars:     Size  Location     Type
  1172 ;;  ret             1   20[COMRAM] unsigned char 
  1173 ;; Return value:  Size  Location     Type
  1174 ;;                  1    wreg      unsigned char 
  1175 ;; Registers used:
  1176 ;;		wreg, fsr2l, fsr2h, status,2, status,0
  1177 ;; Tracked objects:
  1178 ;;		On entry : 0/0
  1179 ;;		On exit  : 0/0
  1180 ;;		Unchanged: 0/0
  1181 ;; Data sizes:     COMRAM   BANK0   BANK1   BANK2   BANK3   BANK4   BANK5   BANK6   BANK7   BANK8   BANK9  BANK10  BANK1
      +1  BANK12  BANK13  BANK14  BANK15
  1182 ;;      Params:         2       0       0       0       0       0       0       0       0       0       0       0       
      +0       0       0       0       0
  1183 ;;      Locals:         1       0       0       0       0       0       0       0       0       0       0       0       
      +0       0       0       0       0
  1184 ;;      Temps:          2       0       0       0       0       0       0       0       0       0       0       0       
      +0       0       0       0       0
  1185 ;;      Totals:         5       0       0       0       0       0       0       0       0       0       0       0       
      +0       0       0       0       0
  1186 ;;Total ram usage:        5 bytes
  1187 ;; Hardware stack levels used: 1
  1188 ;; Hardware stack levels required when called: 4
  1189 ;; This function calls:
  1190 ;;		Nothing
  1191 ;; This function is called by:
  1192 ;;		_mcal_interrupt_INTx_Init
  1193 ;; This function uses a non-reentrant model
  1194 ;;
  1195                           
  1196                           	psect	text8
  1197   00167E                     __ptext8:
  1198                           	callstack 0
  1199   00167E                     _Interrupt_INTx_SetInterruptHandler:
  1200                           	callstack 24
  1201   00167E                     
  1202                           ;MCAL_Layer/Interrupt/mcal_external_interrupt.c: 522: static Std_ReturnType Interrupt_IN
      +                          Tx_SetInterruptHandler(const INTx_config_t* _INTx_config);MCAL_Layer/Interrupt/mcal_exte
      +                          rnal_interrupt.c: 523: {;MCAL_Layer/Interrupt/mcal_external_interrupt.c: 524:     Std_Re
      +                          turnType ret = (Std_ReturnType)0x01;
  1203   00167E  0E01               	movlw	1
  1204   001680  6E3F               	movwf	Interrupt_INTx_SetInterruptHandler@ret^0,c
  1205                           
  1206                           ;MCAL_Layer/Interrupt/mcal_external_interrupt.c: 526:     switch(_INTx_config->source)
  1207   001682  EF6B  F00B         	goto	l2978
  1208   001686                     l2970:
  1209                           
  1210                           ;MCAL_Layer/Interrupt/mcal_external_interrupt.c: 529:             INT0_InterruptHandler 
      +                          = _INTx_config->EXT_InterruptHandler;
  1211   001686  EE20 F004          	lfsr	2,4
  1212   00168A  503B               	movf	Interrupt_INTx_SetInterruptHandler@_INTx_config^0,w,c
  1213   00168C  26D9               	addwf	fsr2l,f,c
  1214   00168E  503C               	movf	(Interrupt_INTx_SetInterruptHandler@_INTx_config+1)^0,w,c
  1215   001690  22DA               	addwfc	fsr2h,f,c
  1216   001692  CFDE F060          	movff	postinc2,_INT0_InterruptHandler
  1217   001696  CFDD F061          	movff	postdec2,_INT0_InterruptHandler+1
  1218                           
  1219                           ;MCAL_Layer/Interrupt/mcal_external_interrupt.c: 530:             break;
  1220   00169A  EF8A  F00B         	goto	l2980
  1221   00169E                     l2972:
  1222                           
  1223                           ;MCAL_Layer/Interrupt/mcal_external_interrupt.c: 533:             INT1_InterruptHandler 
      +                          = _INTx_config->EXT_InterruptHandler;
  1224   00169E  EE20 F004          	lfsr	2,4
  1225   0016A2  503B               	movf	Interrupt_INTx_SetInterruptHandler@_INTx_config^0,w,c
  1226   0016A4  26D9               	addwf	fsr2l,f,c
  1227   0016A6  503C               	movf	(Interrupt_INTx_SetInterruptHandler@_INTx_config+1)^0,w,c
  1228   0016A8  22DA               	addwfc	fsr2h,f,c
  1229   0016AA  CFDE F05E          	movff	postinc2,_INT1_InterruptHandler
  1230   0016AE  CFDD F05F          	movff	postdec2,_INT1_InterruptHandler+1
  1231                           
  1232                           ;MCAL_Layer/Interrupt/mcal_external_interrupt.c: 534:             break;
  1233   0016B2  EF8A  F00B         	goto	l2980
  1234   0016B6                     l2974:
  1235                           
  1236                           ;MCAL_Layer/Interrupt/mcal_external_interrupt.c: 537:             INT2_InterruptHandler 
      +                          = _INTx_config->EXT_InterruptHandler;
  1237   0016B6  EE20 F004          	lfsr	2,4
  1238   0016BA  503B               	movf	Interrupt_INTx_SetInterruptHandler@_INTx_config^0,w,c
  1239   0016BC  26D9               	addwf	fsr2l,f,c
  1240   0016BE  503C               	movf	(Interrupt_INTx_SetInterruptHandler@_INTx_config+1)^0,w,c
  1241   0016C0  22DA               	addwfc	fsr2h,f,c
  1242   0016C2  CFDE F05C          	movff	postinc2,_INT2_InterruptHandler
  1243   0016C6  CFDD F05D          	movff	postdec2,_INT2_InterruptHandler+1
  1244                           
  1245                           ;MCAL_Layer/Interrupt/mcal_external_interrupt.c: 538:             break;
  1246   0016CA  EF8A  F00B         	goto	l2980
  1247   0016CE                     l2976:
  1248                           
  1249                           ;MCAL_Layer/Interrupt/mcal_external_interrupt.c: 541:             ret = (Std_ReturnType)
      +                          0x00;
  1250   0016CE  0E00               	movlw	0
  1251   0016D0  6E3F               	movwf	Interrupt_INTx_SetInterruptHandler@ret^0,c
  1252                           
  1253                           ;MCAL_Layer/Interrupt/mcal_external_interrupt.c: 542:     }
  1254   0016D2  EF8A  F00B         	goto	l2980
  1255   0016D6                     l2978:
  1256   0016D6  EE20 F002          	lfsr	2,2
  1257   0016DA  503B               	movf	Interrupt_INTx_SetInterruptHandler@_INTx_config^0,w,c
  1258   0016DC  26D9               	addwf	fsr2l,f,c
  1259   0016DE  503C               	movf	(Interrupt_INTx_SetInterruptHandler@_INTx_config+1)^0,w,c
  1260   0016E0  22DA               	addwfc	fsr2h,f,c
  1261   0016E2  50DF               	movf	indf2,w,c
  1262   0016E4  6E3D               	movwf	??_Interrupt_INTx_SetInterruptHandler^0,c
  1263   0016E6  6A3E               	clrf	(??_Interrupt_INTx_SetInterruptHandler+1)^0,c
  1264                           
  1265                           ; Switch on 2 bytes has been partitioned into a top level switch of size 1, and 1 sub-sw
      +                          itches
  1266                           ; Switch size 1, requested type "simple"
  1267                           ; Number of cases is 1, Range of values is 0 to 0
  1268                           ; switch strategies available:
  1269                           ; Name         Instructions Cycles
  1270                           ; simple_byte            4     3 (average)
  1271                           ;	Chosen strategy is simple_byte
  1272   0016E8  503E               	movf	(??_Interrupt_INTx_SetInterruptHandler+1)^0,w,c
  1273   0016EA  0A00               	xorlw	0	; case 0
  1274   0016EC  B4D8               	btfsc	status,2,c
  1275   0016EE  EF7B  F00B         	goto	l3944
  1276   0016F2  EF67  F00B         	goto	l2976
  1277   0016F6                     l3944:
  1278                           
  1279                           ; Switch size 1, requested type "simple"
  1280                           ; Number of cases is 3, Range of values is 0 to 2
  1281                           ; switch strategies available:
  1282                           ; Name         Instructions Cycles
  1283                           ; simple_byte           10     6 (average)
  1284                           ;	Chosen strategy is simple_byte
  1285   0016F6  503D               	movf	??_Interrupt_INTx_SetInterruptHandler^0,w,c
  1286   0016F8  0A00               	xorlw	0	; case 0
  1287   0016FA  B4D8               	btfsc	status,2,c
  1288   0016FC  EF43  F00B         	goto	l2970
  1289   001700  0A01               	xorlw	1	; case 1
  1290   001702  B4D8               	btfsc	status,2,c
  1291   001704  EF4F  F00B         	goto	l2972
  1292   001708  0A03               	xorlw	3	; case 2
  1293   00170A  B4D8               	btfsc	status,2,c
  1294   00170C  EF5B  F00B         	goto	l2974
  1295   001710  EF67  F00B         	goto	l2976
  1296   001714                     l2980:
  1297                           
  1298                           ;MCAL_Layer/Interrupt/mcal_external_interrupt.c: 544:     return ret;
  1299   001714  503F               	movf	Interrupt_INTx_SetInterruptHandler@ret^0,w,c
  1300   001716  0012               	return		;funcret
  1301   001718                     __end_of_Interrupt_INTx_SetInterruptHandler:
  1302                           	callstack 0
  1303                           
  1304 ;; *************** function _Interrupt_INTx_Pin_Init *****************
  1305 ;; Defined at:
  1306 ;;		line 470 in file "MCAL_Layer/Interrupt/mcal_external_interrupt.c"
  1307 ;; Parameters:    Size  Location     Type
  1308 ;;  _INTx_config    2   25[COMRAM] PTR const struct .
  1309 ;;		 -> int0_obj(6), 
  1310 ;; Auto vars:     Size  Location     Type
  1311 ;;  ret             1   29[COMRAM] unsigned char 
  1312 ;; Return value:  Size  Location     Type
  1313 ;;                  1    wreg      unsigned char 
  1314 ;; Registers used:
  1315 ;;		wreg, fsr2l, fsr2h, status,2, status,0, prodl, prodh, cstack
  1316 ;; Tracked objects:
  1317 ;;		On entry : 0/0
  1318 ;;		On exit  : 0/0
  1319 ;;		Unchanged: 0/0
  1320 ;; Data sizes:     COMRAM   BANK0   BANK1   BANK2   BANK3   BANK4   BANK5   BANK6   BANK7   BANK8   BANK9  BANK10  BANK1
      +1  BANK12  BANK13  BANK14  BANK15
  1321 ;;      Params:         2       0       0       0       0       0       0       0       0       0       0       0       
      +0       0       0       0       0
  1322 ;;      Locals:         1       0       0       0       0       0       0       0       0       0       0       0       
      +0       0       0       0       0
  1323 ;;      Temps:          2       0       0       0       0       0       0       0       0       0       0       0       
      +0       0       0       0       0
  1324 ;;      Totals:         5       0       0       0       0       0       0       0       0       0       0       0       
      +0       0       0       0       0
  1325 ;;Total ram usage:        5 bytes
  1326 ;; Hardware stack levels used: 1
  1327 ;; Hardware stack levels required when called: 5
  1328 ;; This function calls:
  1329 ;;		_gpio_pin_direction_initialize
  1330 ;; This function is called by:
  1331 ;;		_mcal_interrupt_INTx_Init
  1332 ;; This function uses a non-reentrant model
  1333 ;;
  1334                           
  1335                           	psect	text9
  1336   001718                     __ptext9:
  1337                           	callstack 0
  1338   001718                     _Interrupt_INTx_Pin_Init:
  1339                           	callstack 23
  1340   001718                     
  1341                           ;MCAL_Layer/Interrupt/mcal_external_interrupt.c: 470: static Std_ReturnType Interrupt_IN
      +                          Tx_Pin_Init(const INTx_config_t* _INTx_config);MCAL_Layer/Interrupt/mcal_external_interr
      +                          upt.c: 471: {;MCAL_Layer/Interrupt/mcal_external_interrupt.c: 472:     Std_ReturnType re
      +                          t = (Std_ReturnType)0x01;
  1342   001718  0E01               	movlw	1
  1343   00171A  6E48               	movwf	Interrupt_INTx_Pin_Init@ret^0,c
  1344                           
  1345                           ;MCAL_Layer/Interrupt/mcal_external_interrupt.c: 474:     switch(_INTx_config->source)
  1346   00171C  EFA6  F00B         	goto	l2956
  1347   001720                     l2948:
  1348                           
  1349                           ;MCAL_Layer/Interrupt/mcal_external_interrupt.c: 477:             ADCON1bits.PCFG = 0b00
      +                          11;
  1350   001720  50C1               	movf	193,w,c	;volatile
  1351   001722  0BF0               	andlw	-16
  1352   001724  0903               	iorlw	3
  1353   001726  6EC1               	movwf	193,c	;volatile
  1354                           
  1355                           ;MCAL_Layer/Interrupt/mcal_external_interrupt.c: 478:             break;
  1356   001728  EFC5  F00B         	goto	l2958
  1357   00172C                     l2950:
  1358                           
  1359                           ;MCAL_Layer/Interrupt/mcal_external_interrupt.c: 481:             ADCON1bits.PCFG = 0b01
      +                          01;
  1360   00172C  50C1               	movf	193,w,c	;volatile
  1361   00172E  0BF0               	andlw	-16
  1362   001730  0905               	iorlw	5
  1363   001732  6EC1               	movwf	193,c	;volatile
  1364                           
  1365                           ;MCAL_Layer/Interrupt/mcal_external_interrupt.c: 482:             break;
  1366   001734  EFC5  F00B         	goto	l2958
  1367   001738                     l2952:
  1368                           
  1369                           ;MCAL_Layer/Interrupt/mcal_external_interrupt.c: 485:             ADCON1bits.PCFG = 0b01
      +                          11;
  1370   001738  50C1               	movf	193,w,c	;volatile
  1371   00173A  0BF0               	andlw	-16
  1372   00173C  0907               	iorlw	7
  1373   00173E  6EC1               	movwf	193,c	;volatile
  1374                           
  1375                           ;MCAL_Layer/Interrupt/mcal_external_interrupt.c: 486:             break;
  1376   001740  EFC5  F00B         	goto	l2958
  1377   001744                     l2954:
  1378                           
  1379                           ;MCAL_Layer/Interrupt/mcal_external_interrupt.c: 489:             ret = (Std_ReturnType)
      +                          0x00;
  1380   001744  0E00               	movlw	0
  1381   001746  6E48               	movwf	Interrupt_INTx_Pin_Init@ret^0,c
  1382                           
  1383                           ;MCAL_Layer/Interrupt/mcal_external_interrupt.c: 490:     }
  1384   001748  EFC5  F00B         	goto	l2958
  1385   00174C                     l2956:
  1386   00174C  EE20 F002          	lfsr	2,2
  1387   001750  5044               	movf	Interrupt_INTx_Pin_Init@_INTx_config^0,w,c
  1388   001752  26D9               	addwf	fsr2l,f,c
  1389   001754  5045               	movf	(Interrupt_INTx_Pin_Init@_INTx_config+1)^0,w,c
  1390   001756  22DA               	addwfc	fsr2h,f,c
  1391   001758  50DF               	movf	indf2,w,c
  1392   00175A  6E46               	movwf	??_Interrupt_INTx_Pin_Init^0,c
  1393   00175C  6A47               	clrf	(??_Interrupt_INTx_Pin_Init+1)^0,c
  1394                           
  1395                           ; Switch on 2 bytes has been partitioned into a top level switch of size 1, and 1 sub-sw
      +                          itches
  1396                           ; Switch size 1, requested type "simple"
  1397                           ; Number of cases is 1, Range of values is 0 to 0
  1398                           ; switch strategies available:
  1399                           ; Name         Instructions Cycles
  1400                           ; simple_byte            4     3 (average)
  1401                           ;	Chosen strategy is simple_byte
  1402   00175E  5047               	movf	(??_Interrupt_INTx_Pin_Init+1)^0,w,c
  1403   001760  0A00               	xorlw	0	; case 0
  1404   001762  B4D8               	btfsc	status,2,c
  1405   001764  EFB6  F00B         	goto	l3946
  1406   001768  EFA2  F00B         	goto	l2954
  1407   00176C                     l3946:
  1408                           
  1409                           ; Switch size 1, requested type "simple"
  1410                           ; Number of cases is 3, Range of values is 0 to 2
  1411                           ; switch strategies available:
  1412                           ; Name         Instructions Cycles
  1413                           ; simple_byte           10     6 (average)
  1414                           ;	Chosen strategy is simple_byte
  1415   00176C  5046               	movf	??_Interrupt_INTx_Pin_Init^0,w,c
  1416   00176E  0A00               	xorlw	0	; case 0
  1417   001770  B4D8               	btfsc	status,2,c
  1418   001772  EF90  F00B         	goto	l2948
  1419   001776  0A01               	xorlw	1	; case 1
  1420   001778  B4D8               	btfsc	status,2,c
  1421   00177A  EF96  F00B         	goto	l2950
  1422   00177E  0A03               	xorlw	3	; case 2
  1423   001780  B4D8               	btfsc	status,2,c
  1424   001782  EF9C  F00B         	goto	l2952
  1425   001786  EFA2  F00B         	goto	l2954
  1426   00178A                     l2958:
  1427                           
  1428                           ;MCAL_Layer/Interrupt/mcal_external_interrupt.c: 492:     ret |= gpio_pin_direction_init
      +                          ialize(&_INTx_config->INTx_pin);
  1429   00178A  C044  F03B         	movff	Interrupt_INTx_Pin_Init@_INTx_config,gpio_pin_direction_initialize@_pin_config
  1430   00178E  C045  F03C         	movff	Interrupt_INTx_Pin_Init@_INTx_config+1,gpio_pin_direction_initialize@_pin_config+
      +                          1
  1431   001792  EC76  F009         	call	_gpio_pin_direction_initialize	;wreg free
  1432   001796  1248               	iorwf	Interrupt_INTx_Pin_Init@ret^0,f,c
  1433   001798                     
  1434                           ;MCAL_Layer/Interrupt/mcal_external_interrupt.c: 494:     return ret;
  1435   001798  5048               	movf	Interrupt_INTx_Pin_Init@ret^0,w,c
  1436   00179A  0012               	return		;funcret
  1437   00179C                     __end_of_Interrupt_INTx_Pin_Init:
  1438                           	callstack 0
  1439                           
  1440 ;; *************** function _Interrupt_INTx_Enable *****************
  1441 ;; Defined at:
  1442 ;;		line 310 in file "MCAL_Layer/Interrupt/mcal_external_interrupt.c"
  1443 ;; Parameters:    Size  Location     Type
  1444 ;;  _INTx_config    2   16[COMRAM] PTR const struct .
  1445 ;;		 -> int0_obj(6), 
  1446 ;; Auto vars:     Size  Location     Type
  1447 ;;  ret             1   20[COMRAM] unsigned char 
  1448 ;; Return value:  Size  Location     Type
  1449 ;;                  1    wreg      unsigned char 
  1450 ;; Registers used:
  1451 ;;		wreg, fsr2l, fsr2h, status,2, status,0
  1452 ;; Tracked objects:
  1453 ;;		On entry : 0/0
  1454 ;;		On exit  : 0/0
  1455 ;;		Unchanged: 0/0
  1456 ;; Data sizes:     COMRAM   BANK0   BANK1   BANK2   BANK3   BANK4   BANK5   BANK6   BANK7   BANK8   BANK9  BANK10  BANK1
      +1  BANK12  BANK13  BANK14  BANK15
  1457 ;;      Params:         2       0       0       0       0       0       0       0       0       0       0       0       
      +0       0       0       0       0
  1458 ;;      Locals:         1       0       0       0       0       0       0       0       0       0       0       0       
      +0       0       0       0       0
  1459 ;;      Temps:          2       0       0       0       0       0       0       0       0       0       0       0       
      +0       0       0       0       0
  1460 ;;      Totals:         5       0       0       0       0       0       0       0       0       0       0       0       
      +0       0       0       0       0
  1461 ;;Total ram usage:        5 bytes
  1462 ;; Hardware stack levels used: 1
  1463 ;; Hardware stack levels required when called: 4
  1464 ;; This function calls:
  1465 ;;		Nothing
  1466 ;; This function is called by:
  1467 ;;		_mcal_interrupt_INTx_Init
  1468 ;; This function uses a non-reentrant model
  1469 ;;
  1470                           
  1471                           	psect	text10
  1472   0018E8                     __ptext10:
  1473                           	callstack 0
  1474   0018E8                     _Interrupt_INTx_Enable:
  1475                           	callstack 24
  1476   0018E8                     
  1477                           ;MCAL_Layer/Interrupt/mcal_external_interrupt.c: 310: static Std_ReturnType Interrupt_IN
      +                          Tx_Enable(const INTx_config_t* _INTx_config);MCAL_Layer/Interrupt/mcal_external_interrup
      +                          t.c: 311: {;MCAL_Layer/Interrupt/mcal_external_interrupt.c: 312:     Std_ReturnType ret 
      +                          = (Std_ReturnType)0x01;
  1478   0018E8  0E01               	movlw	1
  1479   0018EA  6E3F               	movwf	Interrupt_INTx_Enable@ret^0,c
  1480   0018EC                     
  1481                           ;MCAL_Layer/Interrupt/mcal_external_interrupt.c: 332:         (INTCONbits.GIE = 1);
  1482   0018EC  8EF2               	bsf	242,7,c	;volatile
  1483   0018EE                     
  1484                           ;MCAL_Layer/Interrupt/mcal_external_interrupt.c: 333:         (INTCONbits.PEIE = 1);
  1485   0018EE  8CF2               	bsf	242,6,c	;volatile
  1486                           
  1487                           ;MCAL_Layer/Interrupt/mcal_external_interrupt.c: 336:     switch(_INTx_config->source)
  1488   0018F0  EF87  F00C         	goto	l2996
  1489   0018F4                     l554:
  1490                           
  1491                           ;MCAL_Layer/Interrupt/mcal_external_interrupt.c: 339:             (INTCONbits.INT0IE = 1
      +                          );
  1492   0018F4  88F2               	bsf	242,4,c	;volatile
  1493                           
  1494                           ;MCAL_Layer/Interrupt/mcal_external_interrupt.c: 340:             break;
  1495   0018F6  EFA6  F00C         	goto	l2998
  1496   0018FA                     l556:
  1497                           
  1498                           ;MCAL_Layer/Interrupt/mcal_external_interrupt.c: 343:             (INTCON3bits.INT1IE = 
      +                          1);
  1499   0018FA  86F0               	bsf	240,3,c	;volatile
  1500                           
  1501                           ;MCAL_Layer/Interrupt/mcal_external_interrupt.c: 344:             break;
  1502   0018FC  EFA6  F00C         	goto	l2998
  1503   001900                     l557:
  1504                           
  1505                           ;MCAL_Layer/Interrupt/mcal_external_interrupt.c: 347:             (INTCON3bits.INT2IE = 
      +                          1);
  1506   001900  88F0               	bsf	240,4,c	;volatile
  1507                           
  1508                           ;MCAL_Layer/Interrupt/mcal_external_interrupt.c: 348:             break;
  1509   001902  EFA6  F00C         	goto	l2998
  1510   001906                     l2994:
  1511                           
  1512                           ;MCAL_Layer/Interrupt/mcal_external_interrupt.c: 351:             ret = (Std_ReturnType)
      +                          0x00;
  1513   001906  0E00               	movlw	0
  1514   001908  6E3F               	movwf	Interrupt_INTx_Enable@ret^0,c
  1515                           
  1516                           ;MCAL_Layer/Interrupt/mcal_external_interrupt.c: 352:     }
  1517   00190A  EFA6  F00C         	goto	l2998
  1518   00190E                     l2996:
  1519   00190E  EE20 F002          	lfsr	2,2
  1520   001912  503B               	movf	Interrupt_INTx_Enable@_INTx_config^0,w,c
  1521   001914  26D9               	addwf	fsr2l,f,c
  1522   001916  503C               	movf	(Interrupt_INTx_Enable@_INTx_config+1)^0,w,c
  1523   001918  22DA               	addwfc	fsr2h,f,c
  1524   00191A  50DF               	movf	indf2,w,c
  1525   00191C  6E3D               	movwf	??_Interrupt_INTx_Enable^0,c
  1526   00191E  6A3E               	clrf	(??_Interrupt_INTx_Enable+1)^0,c
  1527                           
  1528                           ; Switch on 2 bytes has been partitioned into a top level switch of size 1, and 1 sub-sw
      +                          itches
  1529                           ; Switch size 1, requested type "simple"
  1530                           ; Number of cases is 1, Range of values is 0 to 0
  1531                           ; switch strategies available:
  1532                           ; Name         Instructions Cycles
  1533                           ; simple_byte            4     3 (average)
  1534                           ;	Chosen strategy is simple_byte
  1535   001920  503E               	movf	(??_Interrupt_INTx_Enable+1)^0,w,c
  1536   001922  0A00               	xorlw	0	; case 0
  1537   001924  B4D8               	btfsc	status,2,c
  1538   001926  EF97  F00C         	goto	l3948
  1539   00192A  EF83  F00C         	goto	l2994
  1540   00192E                     l3948:
  1541                           
  1542                           ; Switch size 1, requested type "simple"
  1543                           ; Number of cases is 3, Range of values is 0 to 2
  1544                           ; switch strategies available:
  1545                           ; Name         Instructions Cycles
  1546                           ; simple_byte           10     6 (average)
  1547                           ;	Chosen strategy is simple_byte
  1548   00192E  503D               	movf	??_Interrupt_INTx_Enable^0,w,c
  1549   001930  0A00               	xorlw	0	; case 0
  1550   001932  B4D8               	btfsc	status,2,c
  1551   001934  EF7A  F00C         	goto	l554
  1552   001938  0A01               	xorlw	1	; case 1
  1553   00193A  B4D8               	btfsc	status,2,c
  1554   00193C  EF7D  F00C         	goto	l556
  1555   001940  0A03               	xorlw	3	; case 2
  1556   001942  B4D8               	btfsc	status,2,c
  1557   001944  EF80  F00C         	goto	l557
  1558   001948  EF83  F00C         	goto	l2994
  1559   00194C                     l2998:
  1560                           
  1561                           ;MCAL_Layer/Interrupt/mcal_external_interrupt.c: 354:     return ret;
  1562   00194C  503F               	movf	Interrupt_INTx_Enable@ret^0,w,c
  1563   00194E  0012               	return		;funcret
  1564   001950                     __end_of_Interrupt_INTx_Enable:
  1565                           	callstack 0
  1566                           
  1567 ;; *************** function _Interrupt_INTx_Edge_Init *****************
  1568 ;; Defined at:
  1569 ;;		line 421 in file "MCAL_Layer/Interrupt/mcal_external_interrupt.c"
  1570 ;; Parameters:    Size  Location     Type
  1571 ;;  _INTx_config    2   16[COMRAM] PTR const struct .
  1572 ;;		 -> int0_obj(6), 
  1573 ;; Auto vars:     Size  Location     Type
  1574 ;;  ret             1   20[COMRAM] unsigned char 
  1575 ;; Return value:  Size  Location     Type
  1576 ;;                  1    wreg      unsigned char 
  1577 ;; Registers used:
  1578 ;;		wreg, fsr2l, fsr2h, status,2, status,0
  1579 ;; Tracked objects:
  1580 ;;		On entry : 0/0
  1581 ;;		On exit  : 0/0
  1582 ;;		Unchanged: 0/0
  1583 ;; Data sizes:     COMRAM   BANK0   BANK1   BANK2   BANK3   BANK4   BANK5   BANK6   BANK7   BANK8   BANK9  BANK10  BANK1
      +1  BANK12  BANK13  BANK14  BANK15
  1584 ;;      Params:         2       0       0       0       0       0       0       0       0       0       0       0       
      +0       0       0       0       0
  1585 ;;      Locals:         1       0       0       0       0       0       0       0       0       0       0       0       
      +0       0       0       0       0
  1586 ;;      Temps:          2       0       0       0       0       0       0       0       0       0       0       0       
      +0       0       0       0       0
  1587 ;;      Totals:         5       0       0       0       0       0       0       0       0       0       0       0       
      +0       0       0       0       0
  1588 ;;Total ram usage:        5 bytes
  1589 ;; Hardware stack levels used: 1
  1590 ;; Hardware stack levels required when called: 4
  1591 ;; This function calls:
  1592 ;;		Nothing
  1593 ;; This function is called by:
  1594 ;;		_mcal_interrupt_INTx_Init
  1595 ;; This function uses a non-reentrant model
  1596 ;;
  1597                           
  1598                           	psect	text11
  1599   00155C                     __ptext11:
  1600                           	callstack 0
  1601   00155C                     _Interrupt_INTx_Edge_Init:
  1602                           	callstack 24
  1603   00155C                     
  1604                           ;MCAL_Layer/Interrupt/mcal_external_interrupt.c: 421: static Std_ReturnType Interrupt_IN
      +                          Tx_Edge_Init(const INTx_config_t* _INTx_config);MCAL_Layer/Interrupt/mcal_external_inter
      +                          rupt.c: 422: {;MCAL_Layer/Interrupt/mcal_external_interrupt.c: 423:     Std_ReturnType r
      +                          et = (Std_ReturnType)0x01;
  1605   00155C  0E01               	movlw	1
  1606   00155E  6E3F               	movwf	Interrupt_INTx_Edge_Init@ret^0,c
  1607                           
  1608                           ;MCAL_Layer/Interrupt/mcal_external_interrupt.c: 425:     switch(_INTx_config->source)
  1609   001560  EF1E  F00B         	goto	l2936
  1610   001564                     l2910:
  1611                           
  1612                           ;MCAL_Layer/Interrupt/mcal_external_interrupt.c: 428:             if(INTERRUPT_FALLING_E
      +                          DGE == _INTx_config->edge)
  1613   001564  EE20 F001          	lfsr	2,1
  1614   001568  503B               	movf	Interrupt_INTx_Edge_Init@_INTx_config^0,w,c
  1615   00156A  26D9               	addwf	fsr2l,f,c
  1616   00156C  503C               	movf	(Interrupt_INTx_Edge_Init@_INTx_config+1)^0,w,c
  1617   00156E  22DA               	addwfc	fsr2h,f,c
  1618   001570  50DF               	movf	indf2,w,c
  1619   001572  A4D8               	btfss	status,2,c
  1620   001574  EFBE  F00A         	goto	u1691
  1621   001578  EFC0  F00A         	goto	u1690
  1622   00157C                     u1691:
  1623   00157C  EFC3  F00A         	goto	l2914
  1624   001580                     u1690:
  1625   001580                     
  1626                           ;MCAL_Layer/Interrupt/mcal_external_interrupt.c: 429:             {;MCAL_Layer/Interrupt
      +                          /mcal_external_interrupt.c: 430:                 (INTCON2bits.INTEDG0 = 0);
  1627   001580  9CF1               	bcf	241,6,c	;volatile
  1628                           
  1629                           ;MCAL_Layer/Interrupt/mcal_external_interrupt.c: 431:             }
  1630   001582  EF3D  F00B         	goto	l2938
  1631   001586                     l2914:
  1632   001586  EE20 F001          	lfsr	2,1
  1633   00158A  503B               	movf	Interrupt_INTx_Edge_Init@_INTx_config^0,w,c
  1634   00158C  26D9               	addwf	fsr2l,f,c
  1635   00158E  503C               	movf	(Interrupt_INTx_Edge_Init@_INTx_config+1)^0,w,c
  1636   001590  22DA               	addwfc	fsr2h,f,c
  1637   001592  04DE               	decf	postinc2,w,c
  1638   001594  A4D8               	btfss	status,2,c
  1639   001596  EFCF  F00A         	goto	u1701
  1640   00159A  EFD1  F00A         	goto	u1700
  1641   00159E                     u1701:
  1642   00159E  EFD4  F00A         	goto	l574
  1643   0015A2                     u1700:
  1644   0015A2                     
  1645                           ;MCAL_Layer/Interrupt/mcal_external_interrupt.c: 433:             {;MCAL_Layer/Interrupt
      +                          /mcal_external_interrupt.c: 434:                 (INTCON2bits.INTEDG0 = 1);
  1646   0015A2  8CF1               	bsf	241,6,c	;volatile
  1647                           
  1648                           ;MCAL_Layer/Interrupt/mcal_external_interrupt.c: 435:             }
  1649   0015A4  EF3D  F00B         	goto	l2938
  1650   0015A8                     l574:
  1651                           
  1652                           ;MCAL_Layer/Interrupt/mcal_external_interrupt.c: 437:             break;
  1653   0015A8  EF3D  F00B         	goto	l2938
  1654   0015AC                     l2918:
  1655                           
  1656                           ;MCAL_Layer/Interrupt/mcal_external_interrupt.c: 440:             if(INTERRUPT_FALLING_E
      +                          DGE == _INTx_config->edge)
  1657   0015AC  EE20 F001          	lfsr	2,1
  1658   0015B0  503B               	movf	Interrupt_INTx_Edge_Init@_INTx_config^0,w,c
  1659   0015B2  26D9               	addwf	fsr2l,f,c
  1660   0015B4  503C               	movf	(Interrupt_INTx_Edge_Init@_INTx_config+1)^0,w,c
  1661   0015B6  22DA               	addwfc	fsr2h,f,c
  1662   0015B8  50DF               	movf	indf2,w,c
  1663   0015BA  A4D8               	btfss	status,2,c
  1664   0015BC  EFE2  F00A         	goto	u1711
  1665   0015C0  EFE4  F00A         	goto	u1710
  1666   0015C4                     u1711:
  1667   0015C4  EFE7  F00A         	goto	l2922
  1668   0015C8                     u1710:
  1669   0015C8                     
  1670                           ;MCAL_Layer/Interrupt/mcal_external_interrupt.c: 441:             {;MCAL_Layer/Interrupt
      +                          /mcal_external_interrupt.c: 442:                 (INTCON2bits.INTEDG1 = 0);
  1671   0015C8  9AF1               	bcf	241,5,c	;volatile
  1672                           
  1673                           ;MCAL_Layer/Interrupt/mcal_external_interrupt.c: 443:             }
  1674   0015CA  EF3D  F00B         	goto	l2938
  1675   0015CE                     l2922:
  1676   0015CE  EE20 F001          	lfsr	2,1
  1677   0015D2  503B               	movf	Interrupt_INTx_Edge_Init@_INTx_config^0,w,c
  1678   0015D4  26D9               	addwf	fsr2l,f,c
  1679   0015D6  503C               	movf	(Interrupt_INTx_Edge_Init@_INTx_config+1)^0,w,c
  1680   0015D8  22DA               	addwfc	fsr2h,f,c
  1681   0015DA  04DE               	decf	postinc2,w,c
  1682   0015DC  A4D8               	btfss	status,2,c
  1683   0015DE  EFF3  F00A         	goto	u1721
  1684   0015E2  EFF5  F00A         	goto	u1720
  1685   0015E6                     u1721:
  1686   0015E6  EF3D  F00B         	goto	l2938
  1687   0015EA                     u1720:
  1688   0015EA                     
  1689                           ;MCAL_Layer/Interrupt/mcal_external_interrupt.c: 445:             {;MCAL_Layer/Interrupt
      +                          /mcal_external_interrupt.c: 446:                 (INTCON2bits.INTEDG1 = 1);
  1690   0015EA  8AF1               	bsf	241,5,c	;volatile
  1691                           
  1692                           ;MCAL_Layer/Interrupt/mcal_external_interrupt.c: 447:             }
  1693   0015EC  EF3D  F00B         	goto	l2938
  1694   0015F0                     l2926:
  1695                           
  1696                           ;MCAL_Layer/Interrupt/mcal_external_interrupt.c: 452:             if(INTERRUPT_FALLING_E
      +                          DGE == _INTx_config->edge)
  1697   0015F0  EE20 F001          	lfsr	2,1
  1698   0015F4  503B               	movf	Interrupt_INTx_Edge_Init@_INTx_config^0,w,c
  1699   0015F6  26D9               	addwf	fsr2l,f,c
  1700   0015F8  503C               	movf	(Interrupt_INTx_Edge_Init@_INTx_config+1)^0,w,c
  1701   0015FA  22DA               	addwfc	fsr2h,f,c
  1702   0015FC  50DF               	movf	indf2,w,c
  1703   0015FE  A4D8               	btfss	status,2,c
  1704   001600  EF04  F00B         	goto	u1731
  1705   001604  EF06  F00B         	goto	u1730
  1706   001608                     u1731:
  1707   001608  EF09  F00B         	goto	l2930
  1708   00160C                     u1730:
  1709   00160C                     
  1710                           ;MCAL_Layer/Interrupt/mcal_external_interrupt.c: 453:             {;MCAL_Layer/Interrupt
      +                          /mcal_external_interrupt.c: 454:                 (INTCON2bits.INTEDG2 = 0);
  1711   00160C  98F1               	bcf	241,4,c	;volatile
  1712                           
  1713                           ;MCAL_Layer/Interrupt/mcal_external_interrupt.c: 455:             }
  1714   00160E  EF3D  F00B         	goto	l2938
  1715   001612                     l2930:
  1716   001612  EE20 F001          	lfsr	2,1
  1717   001616  503B               	movf	Interrupt_INTx_Edge_Init@_INTx_config^0,w,c
  1718   001618  26D9               	addwf	fsr2l,f,c
  1719   00161A  503C               	movf	(Interrupt_INTx_Edge_Init@_INTx_config+1)^0,w,c
  1720   00161C  22DA               	addwfc	fsr2h,f,c
  1721   00161E  04DE               	decf	postinc2,w,c
  1722   001620  A4D8               	btfss	status,2,c
  1723   001622  EF15  F00B         	goto	u1741
  1724   001626  EF17  F00B         	goto	u1740
  1725   00162A                     u1741:
  1726   00162A  EF3D  F00B         	goto	l2938
  1727   00162E                     u1740:
  1728   00162E                     
  1729                           ;MCAL_Layer/Interrupt/mcal_external_interrupt.c: 457:             {;MCAL_Layer/Interrupt
      +                          /mcal_external_interrupt.c: 458:                 (INTCON2bits.INTEDG2 = 1);
  1730   00162E  88F1               	bsf	241,4,c	;volatile
  1731                           
  1732                           ;MCAL_Layer/Interrupt/mcal_external_interrupt.c: 459:             }
  1733   001630  EF3D  F00B         	goto	l2938
  1734   001634                     l2934:
  1735                           
  1736                           ;MCAL_Layer/Interrupt/mcal_external_interrupt.c: 464:             ret = (Std_ReturnType)
      +                          0x00;
  1737   001634  0E00               	movlw	0
  1738   001636  6E3F               	movwf	Interrupt_INTx_Edge_Init@ret^0,c
  1739                           
  1740                           ;MCAL_Layer/Interrupt/mcal_external_interrupt.c: 465:     }
  1741   001638  EF3D  F00B         	goto	l2938
  1742   00163C                     l2936:
  1743   00163C  EE20 F002          	lfsr	2,2
  1744   001640  503B               	movf	Interrupt_INTx_Edge_Init@_INTx_config^0,w,c
  1745   001642  26D9               	addwf	fsr2l,f,c
  1746   001644  503C               	movf	(Interrupt_INTx_Edge_Init@_INTx_config+1)^0,w,c
  1747   001646  22DA               	addwfc	fsr2h,f,c
  1748   001648  50DF               	movf	indf2,w,c
  1749   00164A  6E3D               	movwf	??_Interrupt_INTx_Edge_Init^0,c
  1750   00164C  6A3E               	clrf	(??_Interrupt_INTx_Edge_Init+1)^0,c
  1751                           
  1752                           ; Switch on 2 bytes has been partitioned into a top level switch of size 1, and 1 sub-sw
      +                          itches
  1753                           ; Switch size 1, requested type "simple"
  1754                           ; Number of cases is 1, Range of values is 0 to 0
  1755                           ; switch strategies available:
  1756                           ; Name         Instructions Cycles
  1757                           ; simple_byte            4     3 (average)
  1758                           ;	Chosen strategy is simple_byte
  1759   00164E  503E               	movf	(??_Interrupt_INTx_Edge_Init+1)^0,w,c
  1760   001650  0A00               	xorlw	0	; case 0
  1761   001652  B4D8               	btfsc	status,2,c
  1762   001654  EF2E  F00B         	goto	l3950
  1763   001658  EF1A  F00B         	goto	l2934
  1764   00165C                     l3950:
  1765                           
  1766                           ; Switch size 1, requested type "simple"
  1767                           ; Number of cases is 3, Range of values is 0 to 2
  1768                           ; switch strategies available:
  1769                           ; Name         Instructions Cycles
  1770                           ; simple_byte           10     6 (average)
  1771                           ;	Chosen strategy is simple_byte
  1772   00165C  503D               	movf	??_Interrupt_INTx_Edge_Init^0,w,c
  1773   00165E  0A00               	xorlw	0	; case 0
  1774   001660  B4D8               	btfsc	status,2,c
  1775   001662  EFB2  F00A         	goto	l2910
  1776   001666  0A01               	xorlw	1	; case 1
  1777   001668  B4D8               	btfsc	status,2,c
  1778   00166A  EFD6  F00A         	goto	l2918
  1779   00166E  0A03               	xorlw	3	; case 2
  1780   001670  B4D8               	btfsc	status,2,c
  1781   001672  EFF8  F00A         	goto	l2926
  1782   001676  EF1A  F00B         	goto	l2934
  1783   00167A                     l2938:
  1784                           
  1785                           ;MCAL_Layer/Interrupt/mcal_external_interrupt.c: 467:     return ret;
  1786   00167A  503F               	movf	Interrupt_INTx_Edge_Init@ret^0,w,c
  1787   00167C  0012               	return		;funcret
  1788   00167E                     __end_of_Interrupt_INTx_Edge_Init:
  1789                           	callstack 0
  1790                           
  1791 ;; *************** function _Interrupt_INTx_Disable *****************
  1792 ;; Defined at:
  1793 ;;		line 357 in file "MCAL_Layer/Interrupt/mcal_external_interrupt.c"
  1794 ;; Parameters:    Size  Location     Type
  1795 ;;  _INTx_config    2   16[COMRAM] PTR const struct .
  1796 ;;		 -> int0_obj(6), 
  1797 ;; Auto vars:     Size  Location     Type
  1798 ;;  ret             1   20[COMRAM] unsigned char 
  1799 ;; Return value:  Size  Location     Type
  1800 ;;                  1    wreg      unsigned char 
  1801 ;; Registers used:
  1802 ;;		wreg, fsr2l, fsr2h, status,2, status,0
  1803 ;; Tracked objects:
  1804 ;;		On entry : 0/0
  1805 ;;		On exit  : 0/0
  1806 ;;		Unchanged: 0/0
  1807 ;; Data sizes:     COMRAM   BANK0   BANK1   BANK2   BANK3   BANK4   BANK5   BANK6   BANK7   BANK8   BANK9  BANK10  BANK1
      +1  BANK12  BANK13  BANK14  BANK15
  1808 ;;      Params:         2       0       0       0       0       0       0       0       0       0       0       0       
      +0       0       0       0       0
  1809 ;;      Locals:         1       0       0       0       0       0       0       0       0       0       0       0       
      +0       0       0       0       0
  1810 ;;      Temps:          2       0       0       0       0       0       0       0       0       0       0       0       
      +0       0       0       0       0
  1811 ;;      Totals:         5       0       0       0       0       0       0       0       0       0       0       0       
      +0       0       0       0       0
  1812 ;;Total ram usage:        5 bytes
  1813 ;; Hardware stack levels used: 1
  1814 ;; Hardware stack levels required when called: 4
  1815 ;; This function calls:
  1816 ;;		Nothing
  1817 ;; This function is called by:
  1818 ;;		_mcal_interrupt_INTx_Init
  1819 ;;		_mcal_interrupt_INTx_DeInit
  1820 ;; This function uses a non-reentrant model
  1821 ;;
  1822                           
  1823                           	psect	text12
  1824   001950                     __ptext12:
  1825                           	callstack 0
  1826   001950                     _Interrupt_INTx_Disable:
  1827                           	callstack 24
  1828   001950                     
  1829                           ;MCAL_Layer/Interrupt/mcal_external_interrupt.c: 357: static Std_ReturnType Interrupt_IN
      +                          Tx_Disable(const INTx_config_t* _INTx_config);MCAL_Layer/Interrupt/mcal_external_interru
      +                          pt.c: 358: {;MCAL_Layer/Interrupt/mcal_external_interrupt.c: 359:     Std_ReturnType ret
      +                           = (Std_ReturnType)0x01;
  1830   001950  0E01               	movlw	1
  1831   001952  6E3F               	movwf	Interrupt_INTx_Disable@ret^0,c
  1832                           
  1833                           ;MCAL_Layer/Interrupt/mcal_external_interrupt.c: 361:     switch(_INTx_config->source)
  1834   001954  EFB9  F00C         	goto	l2884
  1835   001958                     l563:
  1836                           
  1837                           ;MCAL_Layer/Interrupt/mcal_external_interrupt.c: 364:             (INTCONbits.INT0IE = 0
      +                          );
  1838   001958  98F2               	bcf	242,4,c	;volatile
  1839                           
  1840                           ;MCAL_Layer/Interrupt/mcal_external_interrupt.c: 365:             break;
  1841   00195A  EFD8  F00C         	goto	l2886
  1842   00195E                     l565:
  1843                           
  1844                           ;MCAL_Layer/Interrupt/mcal_external_interrupt.c: 368:             (INTCON3bits.INT1IE = 
      +                          0);
  1845   00195E  96F0               	bcf	240,3,c	;volatile
  1846                           
  1847                           ;MCAL_Layer/Interrupt/mcal_external_interrupt.c: 369:             break;
  1848   001960  EFD8  F00C         	goto	l2886
  1849   001964                     l566:
  1850                           
  1851                           ;MCAL_Layer/Interrupt/mcal_external_interrupt.c: 372:             (INTCON3bits.INT2IE = 
      +                          0);
  1852   001964  98F0               	bcf	240,4,c	;volatile
  1853                           
  1854                           ;MCAL_Layer/Interrupt/mcal_external_interrupt.c: 373:             break;
  1855   001966  EFD8  F00C         	goto	l2886
  1856   00196A                     l2882:
  1857                           
  1858                           ;MCAL_Layer/Interrupt/mcal_external_interrupt.c: 376:             ret = (Std_ReturnType)
      +                          0x00;
  1859   00196A  0E00               	movlw	0
  1860   00196C  6E3F               	movwf	Interrupt_INTx_Disable@ret^0,c
  1861                           
  1862                           ;MCAL_Layer/Interrupt/mcal_external_interrupt.c: 377:     }
  1863   00196E  EFD8  F00C         	goto	l2886
  1864   001972                     l2884:
  1865   001972  EE20 F002          	lfsr	2,2
  1866   001976  503B               	movf	Interrupt_INTx_Disable@_INTx_config^0,w,c
  1867   001978  26D9               	addwf	fsr2l,f,c
  1868   00197A  503C               	movf	(Interrupt_INTx_Disable@_INTx_config+1)^0,w,c
  1869   00197C  22DA               	addwfc	fsr2h,f,c
  1870   00197E  50DF               	movf	indf2,w,c
  1871   001980  6E3D               	movwf	??_Interrupt_INTx_Disable^0,c
  1872   001982  6A3E               	clrf	(??_Interrupt_INTx_Disable+1)^0,c
  1873                           
  1874                           ; Switch on 2 bytes has been partitioned into a top level switch of size 1, and 1 sub-sw
      +                          itches
  1875                           ; Switch size 1, requested type "simple"
  1876                           ; Number of cases is 1, Range of values is 0 to 0
  1877                           ; switch strategies available:
  1878                           ; Name         Instructions Cycles
  1879                           ; simple_byte            4     3 (average)
  1880                           ;	Chosen strategy is simple_byte
  1881   001984  503E               	movf	(??_Interrupt_INTx_Disable+1)^0,w,c
  1882   001986  0A00               	xorlw	0	; case 0
  1883   001988  B4D8               	btfsc	status,2,c
  1884   00198A  EFC9  F00C         	goto	l3952
  1885   00198E  EFB5  F00C         	goto	l2882
  1886   001992                     l3952:
  1887                           
  1888                           ; Switch size 1, requested type "simple"
  1889                           ; Number of cases is 3, Range of values is 0 to 2
  1890                           ; switch strategies available:
  1891                           ; Name         Instructions Cycles
  1892                           ; simple_byte           10     6 (average)
  1893                           ;	Chosen strategy is simple_byte
  1894   001992  503D               	movf	??_Interrupt_INTx_Disable^0,w,c
  1895   001994  0A00               	xorlw	0	; case 0
  1896   001996  B4D8               	btfsc	status,2,c
  1897   001998  EFAC  F00C         	goto	l563
  1898   00199C  0A01               	xorlw	1	; case 1
  1899   00199E  B4D8               	btfsc	status,2,c
  1900   0019A0  EFAF  F00C         	goto	l565
  1901   0019A4  0A03               	xorlw	3	; case 2
  1902   0019A6  B4D8               	btfsc	status,2,c
  1903   0019A8  EFB2  F00C         	goto	l566
  1904   0019AC  EFB5  F00C         	goto	l2882
  1905   0019B0                     l2886:
  1906                           
  1907                           ;MCAL_Layer/Interrupt/mcal_external_interrupt.c: 379:     return ret;
  1908   0019B0  503F               	movf	Interrupt_INTx_Disable@ret^0,w,c
  1909   0019B2  0012               	return		;funcret
  1910   0019B4                     __end_of_Interrupt_INTx_Disable:
  1911                           	callstack 0
  1912                           
  1913 ;; *************** function _Interrupt_INTx_Clear_Flag *****************
  1914 ;; Defined at:
  1915 ;;		line 497 in file "MCAL_Layer/Interrupt/mcal_external_interrupt.c"
  1916 ;; Parameters:    Size  Location     Type
  1917 ;;  _INTx_config    2   16[COMRAM] PTR const struct .
  1918 ;;		 -> int0_obj(6), 
  1919 ;; Auto vars:     Size  Location     Type
  1920 ;;  ret             1   20[COMRAM] unsigned char 
  1921 ;; Return value:  Size  Location     Type
  1922 ;;                  1    wreg      unsigned char 
  1923 ;; Registers used:
  1924 ;;		wreg, fsr2l, fsr2h, status,2, status,0
  1925 ;; Tracked objects:
  1926 ;;		On entry : 0/0
  1927 ;;		On exit  : 0/0
  1928 ;;		Unchanged: 0/0
  1929 ;; Data sizes:     COMRAM   BANK0   BANK1   BANK2   BANK3   BANK4   BANK5   BANK6   BANK7   BANK8   BANK9  BANK10  BANK1
      +1  BANK12  BANK13  BANK14  BANK15
  1930 ;;      Params:         2       0       0       0       0       0       0       0       0       0       0       0       
      +0       0       0       0       0
  1931 ;;      Locals:         1       0       0       0       0       0       0       0       0       0       0       0       
      +0       0       0       0       0
  1932 ;;      Temps:          2       0       0       0       0       0       0       0       0       0       0       0       
      +0       0       0       0       0
  1933 ;;      Totals:         5       0       0       0       0       0       0       0       0       0       0       0       
      +0       0       0       0       0
  1934 ;;Total ram usage:        5 bytes
  1935 ;; Hardware stack levels used: 1
  1936 ;; Hardware stack levels required when called: 4
  1937 ;; This function calls:
  1938 ;;		Nothing
  1939 ;; This function is called by:
  1940 ;;		_mcal_interrupt_INTx_Init
  1941 ;; This function uses a non-reentrant model
  1942 ;;
  1943                           
  1944                           	psect	text13
  1945   0019B4                     __ptext13:
  1946                           	callstack 0
  1947   0019B4                     _Interrupt_INTx_Clear_Flag:
  1948                           	callstack 24
  1949   0019B4                     
  1950                           ;MCAL_Layer/Interrupt/mcal_external_interrupt.c: 497: static Std_ReturnType Interrupt_IN
      +                          Tx_Clear_Flag(const INTx_config_t* _INTx_config);MCAL_Layer/Interrupt/mcal_external_inte
      +                          rrupt.c: 498: {;MCAL_Layer/Interrupt/mcal_external_interrupt.c: 499:     Std_ReturnType 
      +                          ret = (Std_ReturnType)0x01;
  1951   0019B4  0E01               	movlw	1
  1952   0019B6  6E3F               	movwf	Interrupt_INTx_Clear_Flag@ret^0,c
  1953                           
  1954                           ;MCAL_Layer/Interrupt/mcal_external_interrupt.c: 501:     switch(_INTx_config->source)
  1955   0019B8  EFEB  F00C         	goto	l2898
  1956   0019BC                     l602:
  1957                           
  1958                           ;MCAL_Layer/Interrupt/mcal_external_interrupt.c: 504:             (INTCONbits.INT0IF = 0
      +                          );
  1959   0019BC  92F2               	bcf	242,1,c	;volatile
  1960                           
  1961                           ;MCAL_Layer/Interrupt/mcal_external_interrupt.c: 505:             break;
  1962   0019BE  EF0A  F00D         	goto	l2900
  1963   0019C2                     l604:
  1964                           
  1965                           ;MCAL_Layer/Interrupt/mcal_external_interrupt.c: 508:             (INTCON3bits.INT1IF = 
      +                          0);
  1966   0019C2  90F0               	bcf	240,0,c	;volatile
  1967                           
  1968                           ;MCAL_Layer/Interrupt/mcal_external_interrupt.c: 509:             break;
  1969   0019C4  EF0A  F00D         	goto	l2900
  1970   0019C8                     l605:
  1971                           
  1972                           ;MCAL_Layer/Interrupt/mcal_external_interrupt.c: 512:             (INTCON3bits.INT2IF = 
      +                          0);
  1973   0019C8  92F0               	bcf	240,1,c	;volatile
  1974                           
  1975                           ;MCAL_Layer/Interrupt/mcal_external_interrupt.c: 513:             break;
  1976   0019CA  EF0A  F00D         	goto	l2900
  1977   0019CE                     l2896:
  1978                           
  1979                           ;MCAL_Layer/Interrupt/mcal_external_interrupt.c: 516:             ret = (Std_ReturnType)
      +                          0x00;
  1980   0019CE  0E00               	movlw	0
  1981   0019D0  6E3F               	movwf	Interrupt_INTx_Clear_Flag@ret^0,c
  1982                           
  1983                           ;MCAL_Layer/Interrupt/mcal_external_interrupt.c: 517:     }
  1984   0019D2  EF0A  F00D         	goto	l2900
  1985   0019D6                     l2898:
  1986   0019D6  EE20 F002          	lfsr	2,2
  1987   0019DA  503B               	movf	Interrupt_INTx_Clear_Flag@_INTx_config^0,w,c
  1988   0019DC  26D9               	addwf	fsr2l,f,c
  1989   0019DE  503C               	movf	(Interrupt_INTx_Clear_Flag@_INTx_config+1)^0,w,c
  1990   0019E0  22DA               	addwfc	fsr2h,f,c
  1991   0019E2  50DF               	movf	indf2,w,c
  1992   0019E4  6E3D               	movwf	??_Interrupt_INTx_Clear_Flag^0,c
  1993   0019E6  6A3E               	clrf	(??_Interrupt_INTx_Clear_Flag+1)^0,c
  1994                           
  1995                           ; Switch on 2 bytes has been partitioned into a top level switch of size 1, and 1 sub-sw
      +                          itches
  1996                           ; Switch size 1, requested type "simple"
  1997                           ; Number of cases is 1, Range of values is 0 to 0
  1998                           ; switch strategies available:
  1999                           ; Name         Instructions Cycles
  2000                           ; simple_byte            4     3 (average)
  2001                           ;	Chosen strategy is simple_byte
  2002   0019E8  503E               	movf	(??_Interrupt_INTx_Clear_Flag+1)^0,w,c
  2003   0019EA  0A00               	xorlw	0	; case 0
  2004   0019EC  B4D8               	btfsc	status,2,c
  2005   0019EE  EFFB  F00C         	goto	l3954
  2006   0019F2  EFE7  F00C         	goto	l2896
  2007   0019F6                     l3954:
  2008                           
  2009                           ; Switch size 1, requested type "simple"
  2010                           ; Number of cases is 3, Range of values is 0 to 2
  2011                           ; switch strategies available:
  2012                           ; Name         Instructions Cycles
  2013                           ; simple_byte           10     6 (average)
  2014                           ;	Chosen strategy is simple_byte
  2015   0019F6  503D               	movf	??_Interrupt_INTx_Clear_Flag^0,w,c
  2016   0019F8  0A00               	xorlw	0	; case 0
  2017   0019FA  B4D8               	btfsc	status,2,c
  2018   0019FC  EFDE  F00C         	goto	l602
  2019   001A00  0A01               	xorlw	1	; case 1
  2020   001A02  B4D8               	btfsc	status,2,c
  2021   001A04  EFE1  F00C         	goto	l604
  2022   001A08  0A03               	xorlw	3	; case 2
  2023   001A0A  B4D8               	btfsc	status,2,c
  2024   001A0C  EFE4  F00C         	goto	l605
  2025   001A10  EFE7  F00C         	goto	l2896
  2026   001A14                     l2900:
  2027                           
  2028                           ;MCAL_Layer/Interrupt/mcal_external_interrupt.c: 519:     return ret;
  2029   001A14  503F               	movf	Interrupt_INTx_Clear_Flag@ret^0,w,c
  2030   001A16  0012               	return		;funcret
  2031   001A18                     __end_of_Interrupt_INTx_Clear_Flag:
  2032                           	callstack 0
  2033                           
  2034 ;; *************** function _ecu_layer_initialize *****************
  2035 ;; Defined at:
  2036 ;;		line 22 in file "ECU_Layer/ecu_layer_init.c"
  2037 ;; Parameters:    Size  Location     Type
  2038 ;;		None
  2039 ;; Auto vars:     Size  Location     Type
  2040 ;;  ret             1    0        unsigned char 
  2041 ;; Return value:  Size  Location     Type
  2042 ;;                  1    wreg      void 
  2043 ;; Registers used:
  2044 ;;		wreg, fsr2l, fsr2h, status,2, status,0, prodl, prodh, cstack
  2045 ;; Tracked objects:
  2046 ;;		On entry : 0/0
  2047 ;;		On exit  : 0/0
  2048 ;;		Unchanged: 0/0
  2049 ;; Data sizes:     COMRAM   BANK0   BANK1   BANK2   BANK3   BANK4   BANK5   BANK6   BANK7   BANK8   BANK9  BANK10  BANK1
      +1  BANK12  BANK13  BANK14  BANK15
  2050 ;;      Params:         0       0       0       0       0       0       0       0       0       0       0       0       
      +0       0       0       0       0
  2051 ;;      Locals:         0       0       0       0       0       0       0       0       0       0       0       0       
      +0       0       0       0       0
  2052 ;;      Temps:          0       0       0       0       0       0       0       0       0       0       0       0       
      +0       0       0       0       0
  2053 ;;      Totals:         0       0       0       0       0       0       0       0       0       0       0       0       
      +0       0       0       0       0
  2054 ;;Total ram usage:        0 bytes
  2055 ;; Hardware stack levels used: 1
  2056 ;; Hardware stack levels required when called: 7
  2057 ;; This function calls:
  2058 ;;		_ecu_led_initialize
  2059 ;; This function is called by:
  2060 ;;		_application_initialize
  2061 ;; This function uses a non-reentrant model
  2062 ;;
  2063                           
  2064                           	psect	text14
  2065   001DD4                     __ptext14:
  2066                           	callstack 0
  2067   001DD4                     _ecu_layer_initialize:
  2068                           	callstack 22
  2069   001DD4  0E2A               	movlw	low _led_1
  2070   001DD6  6E49               	movwf	ecu_led_initialize@_led_config^0,c
  2071   001DD8  0E00               	movlw	high _led_1
  2072   001DDA  6E4A               	movwf	(ecu_led_initialize@_led_config+1)^0,c
  2073   001DDC  EC5A  F00E         	call	_ecu_led_initialize	;wreg free
  2074   001DE0  0E29               	movlw	low _led_2
  2075   001DE2  6E49               	movwf	ecu_led_initialize@_led_config^0,c
  2076   001DE4  0E00               	movlw	high _led_2
  2077   001DE6  6E4A               	movwf	(ecu_led_initialize@_led_config+1)^0,c
  2078   001DE8  EC5A  F00E         	call	_ecu_led_initialize	;wreg free
  2079   001DEC  0012               	return		;funcret
  2080   001DEE                     __end_of_ecu_layer_initialize:
  2081                           	callstack 0
  2082                           
  2083 ;; *************** function _ecu_led_initialize *****************
  2084 ;; Defined at:
  2085 ;;		line 15 in file "ECU_Layer/LED/ecu_led.c"
  2086 ;; Parameters:    Size  Location     Type
  2087 ;;  _led_config     2   30[COMRAM] PTR const struct .
  2088 ;;		 -> led_2(1), led_1(1), 
  2089 ;; Auto vars:     Size  Location     Type
  2090 ;;  ret             1   32[COMRAM] unsigned char 
  2091 ;; Return value:  Size  Location     Type
  2092 ;;                  1    wreg      unsigned char 
  2093 ;; Registers used:
  2094 ;;		wreg, fsr2l, fsr2h, status,2, status,0, prodl, prodh, cstack
  2095 ;; Tracked objects:
  2096 ;;		On entry : 0/0
  2097 ;;		On exit  : 0/0
  2098 ;;		Unchanged: 0/0
  2099 ;; Data sizes:     COMRAM   BANK0   BANK1   BANK2   BANK3   BANK4   BANK5   BANK6   BANK7   BANK8   BANK9  BANK10  BANK1
      +1  BANK12  BANK13  BANK14  BANK15
  2100 ;;      Params:         2       0       0       0       0       0       0       0       0       0       0       0       
      +0       0       0       0       0
  2101 ;;      Locals:         1       0       0       0       0       0       0       0       0       0       0       0       
      +0       0       0       0       0
  2102 ;;      Temps:          0       0       0       0       0       0       0       0       0       0       0       0       
      +0       0       0       0       0
  2103 ;;      Totals:         3       0       0       0       0       0       0       0       0       0       0       0       
      +0       0       0       0       0
  2104 ;;Total ram usage:        3 bytes
  2105 ;; Hardware stack levels used: 1
  2106 ;; Hardware stack levels required when called: 6
  2107 ;; This function calls:
  2108 ;;		_gpio_pin_initialize
  2109 ;; This function is called by:
  2110 ;;		_ecu_layer_initialize
  2111 ;; This function uses a non-reentrant model
  2112 ;;
  2113                           
  2114                           	psect	text15
  2115   001CB4                     __ptext15:
  2116                           	callstack 0
  2117   001CB4                     _ecu_led_initialize:
  2118                           	callstack 22
  2119   001CB4                     
  2120                           ;ECU_Layer/LED/ecu_led.c: 19:     if(((void*)0) == _led_config)
  2121   001CB4  5049               	movf	ecu_led_initialize@_led_config^0,w,c
  2122   001CB6  104A               	iorwf	(ecu_led_initialize@_led_config+1)^0,w,c
  2123   001CB8  A4D8               	btfss	status,2,c
  2124   001CBA  EF61  F00E         	goto	u1681
  2125   001CBE  EF63  F00E         	goto	u1680
  2126   001CC2                     u1681:
  2127   001CC2  EF67  F00E         	goto	l2874
  2128   001CC6                     u1680:
  2129   001CC6                     
  2130                           ;ECU_Layer/LED/ecu_led.c: 20:     {;ECU_Layer/LED/ecu_led.c: 21:         ret = (Std_Retu
      +                          rnType)0x00;
  2131   001CC6  0E00               	movlw	0
  2132   001CC8  6E4B               	movwf	ecu_led_initialize@ret^0,c
  2133                           
  2134                           ;ECU_Layer/LED/ecu_led.c: 22:     }
  2135   001CCA  EF6E  F00E         	goto	l2876
  2136   001CCE                     l2874:
  2137                           
  2138                           ;ECU_Layer/LED/ecu_led.c: 25:     {;ECU_Layer/LED/ecu_led.c: 26:         ret = gpio_pin_
      +                          initialize(&_led_config->led_pin);
  2139   001CCE  C049  F045         	movff	ecu_led_initialize@_led_config,gpio_pin_initialize@_pin_config
  2140   001CD2  C04A  F046         	movff	ecu_led_initialize@_led_config+1,gpio_pin_initialize@_pin_config+1
  2141   001CD6  EC3E  F00C         	call	_gpio_pin_initialize	;wreg free
  2142   001CDA  6E4B               	movwf	ecu_led_initialize@ret^0,c
  2143   001CDC                     l2876:
  2144                           
  2145                           ;ECU_Layer/LED/ecu_led.c: 29:     return ret;
  2146   001CDC  504B               	movf	ecu_led_initialize@ret^0,w,c
  2147   001CDE  0012               	return		;funcret
  2148   001CE0                     __end_of_ecu_led_initialize:
  2149                           	callstack 0
  2150                           
  2151 ;; *************** function _gpio_pin_initialize *****************
  2152 ;; Defined at:
  2153 ;;		line 161 in file "MCAL_Layer/GPIO/mcal_gpio.c"
  2154 ;; Parameters:    Size  Location     Type
  2155 ;;  _pin_config     2   26[COMRAM] PTR const struct .
  2156 ;;		 -> led_2(1), led_1(1), 
  2157 ;; Auto vars:     Size  Location     Type
  2158 ;;  ret             1   29[COMRAM] unsigned char 
  2159 ;; Return value:  Size  Location     Type
  2160 ;;                  1    wreg      unsigned char 
  2161 ;; Registers used:
  2162 ;;		wreg, fsr2l, fsr2h, status,2, status,0, prodl, prodh, cstack
  2163 ;; Tracked objects:
  2164 ;;		On entry : 0/0
  2165 ;;		On exit  : 0/0
  2166 ;;		Unchanged: 0/0
  2167 ;; Data sizes:     COMRAM   BANK0   BANK1   BANK2   BANK3   BANK4   BANK5   BANK6   BANK7   BANK8   BANK9  BANK10  BANK1
      +1  BANK12  BANK13  BANK14  BANK15
  2168 ;;      Params:         2       0       0       0       0       0       0       0       0       0       0       0       
      +0       0       0       0       0
  2169 ;;      Locals:         1       0       0       0       0       0       0       0       0       0       0       0       
      +0       0       0       0       0
  2170 ;;      Temps:          1       0       0       0       0       0       0       0       0       0       0       0       
      +0       0       0       0       0
  2171 ;;      Totals:         4       0       0       0       0       0       0       0       0       0       0       0       
      +0       0       0       0       0
  2172 ;;Total ram usage:        4 bytes
  2173 ;; Hardware stack levels used: 1
  2174 ;; Hardware stack levels required when called: 5
  2175 ;; This function calls:
  2176 ;;		_gpio_pin_direction_initialize
  2177 ;;		_gpio_pin_write_logic
  2178 ;; This function is called by:
  2179 ;;		_ecu_led_initialize
  2180 ;;		_ecu_7_segment_initialize
  2181 ;;		_ecu_dc_motor_initialize
  2182 ;;		_ecu_dc_motor_stop
  2183 ;;		_ecu_keypad_initialize
  2184 ;;		_ecu_lcd_4bits_initialize
  2185 ;;		_ecu_lcd_8bits_initialize
  2186 ;; This function uses a non-reentrant model
  2187 ;;
  2188                           
  2189                           	psect	text16
  2190   00187C                     __ptext16:
  2191                           	callstack 0
  2192   00187C                     _gpio_pin_initialize:
  2193                           	callstack 22
  2194   00187C                     
  2195                           ;MCAL_Layer/GPIO/mcal_gpio.c: 165:     if(((void*)0) == _pin_config || _pin_config->pin 
      +                          > 7)
  2196   00187C  5045               	movf	gpio_pin_initialize@_pin_config^0,w,c
  2197   00187E  1046               	iorwf	(gpio_pin_initialize@_pin_config+1)^0,w,c
  2198   001880  B4D8               	btfsc	status,2,c
  2199   001882  EF45  F00C         	goto	u1661
  2200   001886  EF47  F00C         	goto	u1660
  2201   00188A                     u1661:
  2202   00188A  EF58  F00C         	goto	l2860
  2203   00188E                     u1660:
  2204   00188E  C045  FFD9         	movff	gpio_pin_initialize@_pin_config,fsr2l
  2205   001892  C046  FFDA         	movff	gpio_pin_initialize@_pin_config+1,fsr2h
  2206   001896  30DF               	rrcf	223,w,c
  2207   001898  32E8               	rrcf	wreg,f,c
  2208   00189A  32E8               	rrcf	wreg,f,c
  2209   00189C  0B07               	andlw	7
  2210   00189E  6E47               	movwf	??_gpio_pin_initialize^0,c
  2211   0018A0  0E07               	movlw	7
  2212   0018A2  6447               	cpfsgt	??_gpio_pin_initialize^0,c
  2213   0018A4  EF56  F00C         	goto	u1671
  2214   0018A8  EF58  F00C         	goto	u1670
  2215   0018AC                     u1671:
  2216   0018AC  EF5C  F00C         	goto	l2862
  2217   0018B0                     u1670:
  2218   0018B0                     l2860:
  2219                           
  2220                           ;MCAL_Layer/GPIO/mcal_gpio.c: 166:     {;MCAL_Layer/GPIO/mcal_gpio.c: 167:         ret =
      +                           (Std_ReturnType)0x00;
  2221   0018B0  0E00               	movlw	0
  2222   0018B2  6E48               	movwf	gpio_pin_initialize@ret^0,c
  2223                           
  2224                           ;MCAL_Layer/GPIO/mcal_gpio.c: 168:     }
  2225   0018B4  EF72  F00C         	goto	l2864
  2226   0018B8                     l2862:
  2227                           
  2228                           ;MCAL_Layer/GPIO/mcal_gpio.c: 171:     {;MCAL_Layer/GPIO/mcal_gpio.c: 172:         ret =
      +                           gpio_pin_direction_initialize(_pin_config);
  2229   0018B8  C045  F03B         	movff	gpio_pin_initialize@_pin_config,gpio_pin_direction_initialize@_pin_config
  2230   0018BC  C046  F03C         	movff	gpio_pin_initialize@_pin_config+1,gpio_pin_direction_initialize@_pin_config+1
  2231   0018C0  EC76  F009         	call	_gpio_pin_direction_initialize	;wreg free
  2232   0018C4  6E48               	movwf	gpio_pin_initialize@ret^0,c
  2233                           
  2234                           ;MCAL_Layer/GPIO/mcal_gpio.c: 173:         ret = gpio_pin_write_logic(_pin_config, _pin_
      +                          config->logic);
  2235   0018C6  C045  F03B         	movff	gpio_pin_initialize@_pin_config,gpio_pin_write_logic@_pin_config
  2236   0018CA  C046  F03C         	movff	gpio_pin_initialize@_pin_config+1,gpio_pin_write_logic@_pin_config+1
  2237   0018CE  C045  FFD9         	movff	gpio_pin_initialize@_pin_config,fsr2l
  2238   0018D2  C046  FFDA         	movff	gpio_pin_initialize@_pin_config+1,fsr2h
  2239   0018D6  0E00               	movlw	0
  2240   0018D8  BEDF               	btfsc	indf2,7,c
  2241   0018DA  0E01               	movlw	1
  2242   0018DC  6E3D               	movwf	gpio_pin_write_logic@logic^0,c
  2243   0018DE  EC18  F00A         	call	_gpio_pin_write_logic	;wreg free
  2244   0018E2  6E48               	movwf	gpio_pin_initialize@ret^0,c
  2245   0018E4                     l2864:
  2246                           
  2247                           ;MCAL_Layer/GPIO/mcal_gpio.c: 176:     return ret;
  2248   0018E4  5048               	movf	gpio_pin_initialize@ret^0,w,c
  2249   0018E6  0012               	return		;funcret
  2250   0018E8                     __end_of_gpio_pin_initialize:
  2251                           	callstack 0
  2252                           
  2253 ;; *************** function _gpio_pin_write_logic *****************
  2254 ;; Defined at:
  2255 ;;		line 83 in file "MCAL_Layer/GPIO/mcal_gpio.c"
  2256 ;; Parameters:    Size  Location     Type
  2257 ;;  _pin_config     2   16[COMRAM] PTR const struct .
  2258 ;;		 -> led_2(1), led_1(1), 
  2259 ;;  logic           1   18[COMRAM] enum E2801
  2260 ;; Auto vars:     Size  Location     Type
  2261 ;;  ret             1   25[COMRAM] unsigned char 
  2262 ;; Return value:  Size  Location     Type
  2263 ;;                  1    wreg      unsigned char 
  2264 ;; Registers used:
  2265 ;;		wreg, fsr2l, fsr2h, status,2, status,0, prodl, prodh
  2266 ;; Tracked objects:
  2267 ;;		On entry : 0/0
  2268 ;;		On exit  : 0/0
  2269 ;;		Unchanged: 0/0
  2270 ;; Data sizes:     COMRAM   BANK0   BANK1   BANK2   BANK3   BANK4   BANK5   BANK6   BANK7   BANK8   BANK9  BANK10  BANK1
      +1  BANK12  BANK13  BANK14  BANK15
  2271 ;;      Params:         3       0       0       0       0       0       0       0       0       0       0       0       
      +0       0       0       0       0
  2272 ;;      Locals:         1       0       0       0       0       0       0       0       0       0       0       0       
      +0       0       0       0       0
  2273 ;;      Temps:          6       0       0       0       0       0       0       0       0       0       0       0       
      +0       0       0       0       0
  2274 ;;      Totals:        10       0       0       0       0       0       0       0       0       0       0       0       
      +0       0       0       0       0
  2275 ;;Total ram usage:       10 bytes
  2276 ;; Hardware stack levels used: 1
  2277 ;; Hardware stack levels required when called: 4
  2278 ;; This function calls:
  2279 ;;		Nothing
  2280 ;; This function is called by:
  2281 ;;		_ecu_led_turn_off
  2282 ;;		_ecu_led_turn_on
  2283 ;;		_gpio_pin_initialize
  2284 ;;		_ecu_7_segment_write_number
  2285 ;;		_ecu_dc_motor_move_right
  2286 ;;		_ecu_dc_motor_move_left
  2287 ;;		_ecu_keypad_get_value
  2288 ;;		_ecu_lcd_4bits_send_command
  2289 ;;		_ecu_lcd_4bits_send_char_data
  2290 ;;		_ecu_lcd_8bits_send_command
  2291 ;;		_ecu_lcd_8bits_send_char_data
  2292 ;;		_lcd_send_4bits
  2293 ;;		_lcd_4bits_send_enable_signal
  2294 ;;		_lcd_8bits_send_enable_signal
  2295 ;; This function uses a non-reentrant model
  2296 ;;
  2297                           
  2298                           	psect	text17
  2299   001430                     __ptext17:
  2300                           	callstack 0
  2301   001430                     _gpio_pin_write_logic:
  2302                           	callstack 24
  2303   001430                     
  2304                           ;MCAL_Layer/GPIO/mcal_gpio.c: 83: Std_ReturnType gpio_pin_write_logic(const pin_config_t
      +                          * _pin_config, logic_t logic);MCAL_Layer/GPIO/mcal_gpio.c: 84: {;MCAL_Layer/GPIO/mcal_gp
      +                          io.c: 85:     Std_ReturnType ret = (Std_ReturnType)0x01;
  2305   001430  0E01               	movlw	1
  2306   001432  6E44               	movwf	gpio_pin_write_logic@ret^0,c
  2307   001434                     
  2308                           ;MCAL_Layer/GPIO/mcal_gpio.c: 87:     if(((void*)0) == _pin_config || _pin_config->pin >
      +                           7)
  2309   001434  503B               	movf	gpio_pin_write_logic@_pin_config^0,w,c
  2310   001436  103C               	iorwf	(gpio_pin_write_logic@_pin_config+1)^0,w,c
  2311   001438  B4D8               	btfsc	status,2,c
  2312   00143A  EF21  F00A         	goto	u1561
  2313   00143E  EF23  F00A         	goto	u1560
  2314   001442                     u1561:
  2315   001442  EF34  F00A         	goto	l2812
  2316   001446                     u1560:
  2317   001446  C03B  FFD9         	movff	gpio_pin_write_logic@_pin_config,fsr2l
  2318   00144A  C03C  FFDA         	movff	gpio_pin_write_logic@_pin_config+1,fsr2h
  2319   00144E  30DF               	rrcf	223,w,c
  2320   001450  32E8               	rrcf	wreg,f,c
  2321   001452  32E8               	rrcf	wreg,f,c
  2322   001454  0B07               	andlw	7
  2323   001456  6E3E               	movwf	??_gpio_pin_write_logic^0,c
  2324   001458  0E07               	movlw	7
  2325   00145A  643E               	cpfsgt	??_gpio_pin_write_logic^0,c
  2326   00145C  EF32  F00A         	goto	u1571
  2327   001460  EF34  F00A         	goto	u1570
  2328   001464                     u1571:
  2329   001464  EF97  F00A         	goto	l2820
  2330   001468                     u1570:
  2331   001468                     l2812:
  2332                           
  2333                           ;MCAL_Layer/GPIO/mcal_gpio.c: 88:     {;MCAL_Layer/GPIO/mcal_gpio.c: 89:         ret = (
      +                          Std_ReturnType)0x00;
  2334   001468  0E00               	movlw	0
  2335   00146A  6E44               	movwf	gpio_pin_write_logic@ret^0,c
  2336                           
  2337                           ;MCAL_Layer/GPIO/mcal_gpio.c: 90:     }
  2338   00146C  EFAC  F00A         	goto	l2822
  2339   001470                     l2814:
  2340                           
  2341                           ;MCAL_Layer/GPIO/mcal_gpio.c: 97:                 (*lat_registers[_pin_config->port] &= 
      +                          ~((Std_ReturnType)1 << _pin_config->pin));
  2342   001470  C03B  FFD9         	movff	gpio_pin_write_logic@_pin_config,fsr2l
  2343   001474  C03C  FFDA         	movff	gpio_pin_write_logic@_pin_config+1,fsr2h
  2344   001478  30DF               	rrcf	223,w,c
  2345   00147A  32E8               	rrcf	wreg,f,c
  2346   00147C  32E8               	rrcf	wreg,f,c
  2347   00147E  0B07               	andlw	7
  2348   001480  6E3E               	movwf	??_gpio_pin_write_logic^0,c
  2349   001482  0E01               	movlw	1
  2350   001484  6E3F               	movwf	(??_gpio_pin_write_logic+1)^0,c
  2351   001486  2A3E               	incf	??_gpio_pin_write_logic^0,f,c
  2352   001488  EF48  F00A         	goto	u1584
  2353   00148C                     u1585:
  2354   00148C  90D8               	bcf	status,0,c
  2355   00148E  363F               	rlcf	(??_gpio_pin_write_logic+1)^0,f,c
  2356   001490                     u1584:
  2357   001490  2E3E               	decfsz	??_gpio_pin_write_logic^0,f,c
  2358   001492  EF46  F00A         	goto	u1585
  2359   001496  503F               	movf	(??_gpio_pin_write_logic+1)^0,w,c
  2360   001498  0AFF               	xorlw	255
  2361   00149A  6E40               	movwf	(??_gpio_pin_write_logic+2)^0,c
  2362   00149C  C03B  FFD9         	movff	gpio_pin_write_logic@_pin_config,fsr2l
  2363   0014A0  C03C  FFDA         	movff	gpio_pin_write_logic@_pin_config+1,fsr2h
  2364   0014A4  50DF               	movf	223,w,c
  2365   0014A6  0B07               	andlw	7
  2366   0014A8  6E41               	movwf	(??_gpio_pin_write_logic+3)^0,c
  2367   0014AA  5041               	movf	(??_gpio_pin_write_logic+3)^0,w,c
  2368   0014AC  0D02               	mullw	2
  2369   0014AE  0E0B               	movlw	low _lat_registers
  2370   0014B0  24F3               	addwf	243,w,c
  2371   0014B2  6ED9               	movwf	fsr2l,c
  2372   0014B4  0E00               	movlw	high _lat_registers
  2373   0014B6  20F4               	addwfc	prodh,w,c
  2374   0014B8  6EDA               	movwf	fsr2h,c
  2375   0014BA  CFDE F042          	movff	postinc2,??_gpio_pin_write_logic+4
  2376   0014BE  CFDD F043          	movff	postdec2,??_gpio_pin_write_logic+5
  2377   0014C2  C042  FFD9         	movff	??_gpio_pin_write_logic+4,fsr2l
  2378   0014C6  C043  FFDA         	movff	??_gpio_pin_write_logic+5,fsr2h
  2379   0014CA  5040               	movf	(??_gpio_pin_write_logic+2)^0,w,c
  2380   0014CC  16DF               	andwf	indf2,f,c
  2381                           
  2382                           ;MCAL_Layer/GPIO/mcal_gpio.c: 98:                 break;
  2383   0014CE  EFAC  F00A         	goto	l2822
  2384   0014D2                     l2816:
  2385                           
  2386                           ;MCAL_Layer/GPIO/mcal_gpio.c: 101:                 (*lat_registers[_pin_config->port] |=
      +                           ((Std_ReturnType)1 << _pin_config->pin));
  2387   0014D2  C03B  FFD9         	movff	gpio_pin_write_logic@_pin_config,fsr2l
  2388   0014D6  C03C  FFDA         	movff	gpio_pin_write_logic@_pin_config+1,fsr2h
  2389   0014DA  30DF               	rrcf	223,w,c
  2390   0014DC  32E8               	rrcf	wreg,f,c
  2391   0014DE  32E8               	rrcf	wreg,f,c
  2392   0014E0  0B07               	andlw	7
  2393   0014E2  6E3E               	movwf	??_gpio_pin_write_logic^0,c
  2394   0014E4  0E01               	movlw	1
  2395   0014E6  6E3F               	movwf	(??_gpio_pin_write_logic+1)^0,c
  2396   0014E8  2A3E               	incf	??_gpio_pin_write_logic^0,f,c
  2397   0014EA  EF79  F00A         	goto	u1594
  2398   0014EE                     u1595:
  2399   0014EE  90D8               	bcf	status,0,c
  2400   0014F0  363F               	rlcf	(??_gpio_pin_write_logic+1)^0,f,c
  2401   0014F2                     u1594:
  2402   0014F2  2E3E               	decfsz	??_gpio_pin_write_logic^0,f,c
  2403   0014F4  EF77  F00A         	goto	u1595
  2404   0014F8  C03B  FFD9         	movff	gpio_pin_write_logic@_pin_config,fsr2l
  2405   0014FC  C03C  FFDA         	movff	gpio_pin_write_logic@_pin_config+1,fsr2h
  2406   001500  50DF               	movf	223,w,c
  2407   001502  0B07               	andlw	7
  2408   001504  6E40               	movwf	(??_gpio_pin_write_logic+2)^0,c
  2409   001506  5040               	movf	(??_gpio_pin_write_logic+2)^0,w,c
  2410   001508  0D02               	mullw	2
  2411   00150A  0E0B               	movlw	low _lat_registers
  2412   00150C  24F3               	addwf	243,w,c
  2413   00150E  6ED9               	movwf	fsr2l,c
  2414   001510  0E00               	movlw	high _lat_registers
  2415   001512  20F4               	addwfc	prodh,w,c
  2416   001514  6EDA               	movwf	fsr2h,c
  2417   001516  CFDE F041          	movff	postinc2,??_gpio_pin_write_logic+3
  2418   00151A  CFDD F042          	movff	postdec2,??_gpio_pin_write_logic+4
  2419   00151E  C041  FFD9         	movff	??_gpio_pin_write_logic+3,fsr2l
  2420   001522  C042  FFDA         	movff	??_gpio_pin_write_logic+4,fsr2h
  2421   001526  503F               	movf	(??_gpio_pin_write_logic+1)^0,w,c
  2422   001528  12DF               	iorwf	indf2,f,c
  2423                           
  2424                           ;MCAL_Layer/GPIO/mcal_gpio.c: 102:                 break;
  2425   00152A  EFAC  F00A         	goto	l2822
  2426   00152E                     l2820:
  2427   00152E  503D               	movf	gpio_pin_write_logic@logic^0,w,c
  2428   001530  6E3E               	movwf	??_gpio_pin_write_logic^0,c
  2429   001532  6A3F               	clrf	(??_gpio_pin_write_logic+1)^0,c
  2430                           
  2431                           ; Switch on 2 bytes has been partitioned into a top level switch of size 1, and 1 sub-sw
      +                          itches
  2432                           ; Switch size 1, requested type "simple"
  2433                           ; Number of cases is 1, Range of values is 0 to 0
  2434                           ; switch strategies available:
  2435                           ; Name         Instructions Cycles
  2436                           ; simple_byte            4     3 (average)
  2437                           ;	Chosen strategy is simple_byte
  2438   001534  503F               	movf	(??_gpio_pin_write_logic+1)^0,w,c
  2439   001536  0A00               	xorlw	0	; case 0
  2440   001538  B4D8               	btfsc	status,2,c
  2441   00153A  EFA1  F00A         	goto	l3956
  2442   00153E  EF34  F00A         	goto	l2812
  2443   001542                     l3956:
  2444                           
  2445                           ; Switch size 1, requested type "simple"
  2446                           ; Number of cases is 2, Range of values is 0 to 1
  2447                           ; switch strategies available:
  2448                           ; Name         Instructions Cycles
  2449                           ; simple_byte            7     4 (average)
  2450                           ;	Chosen strategy is simple_byte
  2451   001542  503E               	movf	??_gpio_pin_write_logic^0,w,c
  2452   001544  0A00               	xorlw	0	; case 0
  2453   001546  B4D8               	btfsc	status,2,c
  2454   001548  EF38  F00A         	goto	l2814
  2455   00154C  0A01               	xorlw	1	; case 1
  2456   00154E  B4D8               	btfsc	status,2,c
  2457   001550  EF69  F00A         	goto	l2816
  2458   001554  EF34  F00A         	goto	l2812
  2459   001558                     l2822:
  2460                           
  2461                           ;MCAL_Layer/GPIO/mcal_gpio.c: 108:     return ret;
  2462   001558  5044               	movf	gpio_pin_write_logic@ret^0,w,c
  2463   00155A  0012               	return		;funcret
  2464   00155C                     __end_of_gpio_pin_write_logic:
  2465                           	callstack 0
  2466                           
  2467 ;; *************** function _gpio_pin_direction_initialize *****************
  2468 ;; Defined at:
  2469 ;;		line 25 in file "MCAL_Layer/GPIO/mcal_gpio.c"
  2470 ;; Parameters:    Size  Location     Type
  2471 ;;  _pin_config     2   16[COMRAM] PTR const struct .
  2472 ;;		 -> int0_obj(6), led_2(1), led_1(1), 
  2473 ;; Auto vars:     Size  Location     Type
  2474 ;;  ret             1   24[COMRAM] unsigned char 
  2475 ;; Return value:  Size  Location     Type
  2476 ;;                  1    wreg      unsigned char 
  2477 ;; Registers used:
  2478 ;;		wreg, fsr2l, fsr2h, status,2, status,0, prodl, prodh
  2479 ;; Tracked objects:
  2480 ;;		On entry : 0/0
  2481 ;;		On exit  : 0/0
  2482 ;;		Unchanged: 0/0
  2483 ;; Data sizes:     COMRAM   BANK0   BANK1   BANK2   BANK3   BANK4   BANK5   BANK6   BANK7   BANK8   BANK9  BANK10  BANK1
      +1  BANK12  BANK13  BANK14  BANK15
  2484 ;;      Params:         2       0       0       0       0       0       0       0       0       0       0       0       
      +0       0       0       0       0
  2485 ;;      Locals:         1       0       0       0       0       0       0       0       0       0       0       0       
      +0       0       0       0       0
  2486 ;;      Temps:          6       0       0       0       0       0       0       0       0       0       0       0       
      +0       0       0       0       0
  2487 ;;      Totals:         9       0       0       0       0       0       0       0       0       0       0       0       
      +0       0       0       0       0
  2488 ;;Total ram usage:        9 bytes
  2489 ;; Hardware stack levels used: 1
  2490 ;; Hardware stack levels required when called: 4
  2491 ;; This function calls:
  2492 ;;		Nothing
  2493 ;; This function is called by:
  2494 ;;		_gpio_pin_initialize
  2495 ;;		_Interrupt_INTx_Pin_Init
  2496 ;;		_ecu_button_initialize
  2497 ;;		_ecu_keypad_initialize
  2498 ;;		_Interrupt_RBx_Pin_Init
  2499 ;; This function uses a non-reentrant model
  2500 ;;
  2501                           
  2502                           	psect	text18
  2503   0012EC                     __ptext18:
  2504                           	callstack 0
  2505   0012EC                     _gpio_pin_direction_initialize:
  2506                           	callstack 23
  2507   0012EC                     
  2508                           ;MCAL_Layer/GPIO/mcal_gpio.c: 25: Std_ReturnType gpio_pin_direction_initialize(const pin
      +                          _config_t* _pin_config);MCAL_Layer/GPIO/mcal_gpio.c: 26: {;MCAL_Layer/GPIO/mcal_gpio.c: 
      +                          27:     Std_ReturnType ret = (Std_ReturnType)0x01;
  2509   0012EC  0E01               	movlw	1
  2510   0012EE  6E43               	movwf	gpio_pin_direction_initialize@ret^0,c
  2511   0012F0                     
  2512                           ;MCAL_Layer/GPIO/mcal_gpio.c: 29:     if(((void*)0) == _pin_config || _pin_config->pin >
      +                           7)
  2513   0012F0  503B               	movf	gpio_pin_direction_initialize@_pin_config^0,w,c
  2514   0012F2  103C               	iorwf	(gpio_pin_direction_initialize@_pin_config+1)^0,w,c
  2515   0012F4  B4D8               	btfsc	status,2,c
  2516   0012F6  EF7F  F009         	goto	u1601
  2517   0012FA  EF81  F009         	goto	u1600
  2518   0012FE                     u1601:
  2519   0012FE  EF92  F009         	goto	l2836
  2520   001302                     u1600:
  2521   001302  C03B  FFD9         	movff	gpio_pin_direction_initialize@_pin_config,fsr2l
  2522   001306  C03C  FFDA         	movff	gpio_pin_direction_initialize@_pin_config+1,fsr2h
  2523   00130A  30DF               	rrcf	223,w,c
  2524   00130C  32E8               	rrcf	wreg,f,c
  2525   00130E  32E8               	rrcf	wreg,f,c
  2526   001310  0B07               	andlw	7
  2527   001312  6E3D               	movwf	??_gpio_pin_direction_initialize^0,c
  2528   001314  0E07               	movlw	7
  2529   001316  643D               	cpfsgt	??_gpio_pin_direction_initialize^0,c
  2530   001318  EF90  F009         	goto	u1611
  2531   00131C  EF92  F009         	goto	u1610
  2532   001320                     u1611:
  2533   001320  EFF5  F009         	goto	l2844
  2534   001324                     u1610:
  2535   001324                     l2836:
  2536                           
  2537                           ;MCAL_Layer/GPIO/mcal_gpio.c: 30:     {;MCAL_Layer/GPIO/mcal_gpio.c: 31:         ret = (
      +                          Std_ReturnType)0x00;
  2538   001324  0E00               	movlw	0
  2539   001326  6E43               	movwf	gpio_pin_direction_initialize@ret^0,c
  2540                           
  2541                           ;MCAL_Layer/GPIO/mcal_gpio.c: 32:     }
  2542   001328  EF16  F00A         	goto	l2846
  2543   00132C                     l2838:
  2544                           
  2545                           ;MCAL_Layer/GPIO/mcal_gpio.c: 39:                 (*tris_registers[_pin_config->port] &=
      +                           ~((Std_ReturnType)1 << _pin_config->pin));
  2546   00132C  C03B  FFD9         	movff	gpio_pin_direction_initialize@_pin_config,fsr2l
  2547   001330  C03C  FFDA         	movff	gpio_pin_direction_initialize@_pin_config+1,fsr2h
  2548   001334  30DF               	rrcf	223,w,c
  2549   001336  32E8               	rrcf	wreg,f,c
  2550   001338  32E8               	rrcf	wreg,f,c
  2551   00133A  0B07               	andlw	7
  2552   00133C  6E3D               	movwf	??_gpio_pin_direction_initialize^0,c
  2553   00133E  0E01               	movlw	1
  2554   001340  6E3E               	movwf	(??_gpio_pin_direction_initialize+1)^0,c
  2555   001342  2A3D               	incf	??_gpio_pin_direction_initialize^0,f,c
  2556   001344  EFA6  F009         	goto	u1624
  2557   001348                     u1625:
  2558   001348  90D8               	bcf	status,0,c
  2559   00134A  363E               	rlcf	(??_gpio_pin_direction_initialize+1)^0,f,c
  2560   00134C                     u1624:
  2561   00134C  2E3D               	decfsz	??_gpio_pin_direction_initialize^0,f,c
  2562   00134E  EFA4  F009         	goto	u1625
  2563   001352  503E               	movf	(??_gpio_pin_direction_initialize+1)^0,w,c
  2564   001354  0AFF               	xorlw	255
  2565   001356  6E3F               	movwf	(??_gpio_pin_direction_initialize+2)^0,c
  2566   001358  C03B  FFD9         	movff	gpio_pin_direction_initialize@_pin_config,fsr2l
  2567   00135C  C03C  FFDA         	movff	gpio_pin_direction_initialize@_pin_config+1,fsr2h
  2568   001360  50DF               	movf	223,w,c
  2569   001362  0B07               	andlw	7
  2570   001364  6E40               	movwf	(??_gpio_pin_direction_initialize+3)^0,c
  2571   001366  5040               	movf	(??_gpio_pin_direction_initialize+3)^0,w,c
  2572   001368  0D02               	mullw	2
  2573   00136A  0E15               	movlw	low _tris_registers
  2574   00136C  24F3               	addwf	243,w,c
  2575   00136E  6ED9               	movwf	fsr2l,c
  2576   001370  0E00               	movlw	high _tris_registers
  2577   001372  20F4               	addwfc	prodh,w,c
  2578   001374  6EDA               	movwf	fsr2h,c
  2579   001376  CFDE F041          	movff	postinc2,??_gpio_pin_direction_initialize+4
  2580   00137A  CFDD F042          	movff	postdec2,??_gpio_pin_direction_initialize+5
  2581   00137E  C041  FFD9         	movff	??_gpio_pin_direction_initialize+4,fsr2l
  2582   001382  C042  FFDA         	movff	??_gpio_pin_direction_initialize+5,fsr2h
  2583   001386  503F               	movf	(??_gpio_pin_direction_initialize+2)^0,w,c
  2584   001388  16DF               	andwf	indf2,f,c
  2585                           
  2586                           ;MCAL_Layer/GPIO/mcal_gpio.c: 40:                 break;
  2587   00138A  EF16  F00A         	goto	l2846
  2588   00138E                     l2840:
  2589                           
  2590                           ;MCAL_Layer/GPIO/mcal_gpio.c: 43:                 (*tris_registers[_pin_config->port] |=
      +                           ((Std_ReturnType)1 << _pin_config->pin));
  2591   00138E  C03B  FFD9         	movff	gpio_pin_direction_initialize@_pin_config,fsr2l
  2592   001392  C03C  FFDA         	movff	gpio_pin_direction_initialize@_pin_config+1,fsr2h
  2593   001396  30DF               	rrcf	223,w,c
  2594   001398  32E8               	rrcf	wreg,f,c
  2595   00139A  32E8               	rrcf	wreg,f,c
  2596   00139C  0B07               	andlw	7
  2597   00139E  6E3D               	movwf	??_gpio_pin_direction_initialize^0,c
  2598   0013A0  0E01               	movlw	1
  2599   0013A2  6E3E               	movwf	(??_gpio_pin_direction_initialize+1)^0,c
  2600   0013A4  2A3D               	incf	??_gpio_pin_direction_initialize^0,f,c
  2601   0013A6  EFD7  F009         	goto	u1634
  2602   0013AA                     u1635:
  2603   0013AA  90D8               	bcf	status,0,c
  2604   0013AC  363E               	rlcf	(??_gpio_pin_direction_initialize+1)^0,f,c
  2605   0013AE                     u1634:
  2606   0013AE  2E3D               	decfsz	??_gpio_pin_direction_initialize^0,f,c
  2607   0013B0  EFD5  F009         	goto	u1635
  2608   0013B4  C03B  FFD9         	movff	gpio_pin_direction_initialize@_pin_config,fsr2l
  2609   0013B8  C03C  FFDA         	movff	gpio_pin_direction_initialize@_pin_config+1,fsr2h
  2610   0013BC  50DF               	movf	223,w,c
  2611   0013BE  0B07               	andlw	7
  2612   0013C0  6E3F               	movwf	(??_gpio_pin_direction_initialize+2)^0,c
  2613   0013C2  503F               	movf	(??_gpio_pin_direction_initialize+2)^0,w,c
  2614   0013C4  0D02               	mullw	2
  2615   0013C6  0E15               	movlw	low _tris_registers
  2616   0013C8  24F3               	addwf	243,w,c
  2617   0013CA  6ED9               	movwf	fsr2l,c
  2618   0013CC  0E00               	movlw	high _tris_registers
  2619   0013CE  20F4               	addwfc	prodh,w,c
  2620   0013D0  6EDA               	movwf	fsr2h,c
  2621   0013D2  CFDE F040          	movff	postinc2,??_gpio_pin_direction_initialize+3
  2622   0013D6  CFDD F041          	movff	postdec2,??_gpio_pin_direction_initialize+4
  2623   0013DA  C040  FFD9         	movff	??_gpio_pin_direction_initialize+3,fsr2l
  2624   0013DE  C041  FFDA         	movff	??_gpio_pin_direction_initialize+4,fsr2h
  2625   0013E2  503E               	movf	(??_gpio_pin_direction_initialize+1)^0,w,c
  2626   0013E4  12DF               	iorwf	indf2,f,c
  2627                           
  2628                           ;MCAL_Layer/GPIO/mcal_gpio.c: 44:                 break;
  2629   0013E6  EF16  F00A         	goto	l2846
  2630   0013EA                     l2844:
  2631   0013EA  C03B  FFD9         	movff	gpio_pin_direction_initialize@_pin_config,fsr2l
  2632   0013EE  C03C  FFDA         	movff	gpio_pin_direction_initialize@_pin_config+1,fsr2h
  2633   0013F2  BCDF               	btfsc	indf2,6,c
  2634   0013F4  EFFE  F009         	goto	u1641
  2635   0013F8  EF01  F00A         	goto	u1640
  2636   0013FC                     u1641:
  2637   0013FC  0E01               	movlw	1
  2638   0013FE  EF02  F00A         	goto	u1650
  2639   001402                     u1640:
  2640   001402  0E00               	movlw	0
  2641   001404                     u1650:
  2642   001404  6E3D               	movwf	??_gpio_pin_direction_initialize^0,c
  2643   001406  6A3E               	clrf	(??_gpio_pin_direction_initialize+1)^0,c
  2644                           
  2645                           ; Switch on 2 bytes has been partitioned into a top level switch of size 1, and 1 sub-sw
      +                          itches
  2646                           ; Switch size 1, requested type "simple"
  2647                           ; Number of cases is 1, Range of values is 0 to 0
  2648                           ; switch strategies available:
  2649                           ; Name         Instructions Cycles
  2650                           ; simple_byte            4     3 (average)
  2651                           ;	Chosen strategy is simple_byte
  2652   001408  503E               	movf	(??_gpio_pin_direction_initialize+1)^0,w,c
  2653   00140A  0A00               	xorlw	0	; case 0
  2654   00140C  B4D8               	btfsc	status,2,c
  2655   00140E  EF0B  F00A         	goto	l3958
  2656   001412  EF92  F009         	goto	l2836
  2657   001416                     l3958:
  2658                           
  2659                           ; Switch size 1, requested type "simple"
  2660                           ; Number of cases is 2, Range of values is 0 to 1
  2661                           ; switch strategies available:
  2662                           ; Name         Instructions Cycles
  2663                           ; simple_byte            7     4 (average)
  2664                           ;	Chosen strategy is simple_byte
  2665   001416  503D               	movf	??_gpio_pin_direction_initialize^0,w,c
  2666   001418  0A00               	xorlw	0	; case 0
  2667   00141A  B4D8               	btfsc	status,2,c
  2668   00141C  EF96  F009         	goto	l2838
  2669   001420  0A01               	xorlw	1	; case 1
  2670   001422  B4D8               	btfsc	status,2,c
  2671   001424  EFC7  F009         	goto	l2840
  2672   001428  EF92  F009         	goto	l2836
  2673   00142C                     l2846:
  2674                           
  2675                           ;MCAL_Layer/GPIO/mcal_gpio.c: 51:     return ret;
  2676   00142C  5043               	movf	gpio_pin_direction_initialize@ret^0,w,c
  2677   00142E  0012               	return		;funcret
  2678   001430                     __end_of_gpio_pin_direction_initialize:
  2679                           	callstack 0
  2680                           
  2681 ;; *************** function _InterruptManager *****************
  2682 ;; Defined at:
  2683 ;;		line 37 in file "MCAL_Layer/Interrupt/mcal_interrupt_manager.c"
  2684 ;; Parameters:    Size  Location     Type
  2685 ;;		None
  2686 ;; Auto vars:     Size  Location     Type
  2687 ;;		None
  2688 ;; Return value:  Size  Location     Type
  2689 ;;                  1    wreg      void 
  2690 ;; Registers used:
  2691 ;;		wreg, fsr1l, fsr1h, fsr2l, fsr2h, status,2, status,0, pcl, pclath, pclatu, tosl, prodl, prodh, cstack
  2692 ;; Tracked objects:
  2693 ;;		On entry : 0/0
  2694 ;;		On exit  : 0/0
  2695 ;;		Unchanged: 0/0
  2696 ;; Data sizes:     COMRAM   BANK0   BANK1   BANK2   BANK3   BANK4   BANK5   BANK6   BANK7   BANK8   BANK9  BANK10  BANK1
      +1  BANK12  BANK13  BANK14  BANK15
  2697 ;;      Params:         0       0       0       0       0       0       0       0       0       0       0       0       
      +0       0       0       0       0
  2698 ;;      Locals:         0       0       0       0       0       0       0       0       0       0       0       0       
      +0       0       0       0       0
  2699 ;;      Temps:          8       0       0       0       0       0       0       0       0       0       0       0       
      +0       0       0       0       0
  2700 ;;      Totals:         8       0       0       0       0       0       0       0       0       0       0       0       
      +0       0       0       0       0
  2701 ;;Total ram usage:        8 bytes
  2702 ;; Hardware stack levels used: 1
  2703 ;; Hardware stack levels required when called: 3
  2704 ;; This function calls:
  2705 ;;		_INT0_ISR
  2706 ;;		_INT1_ISR
  2707 ;;		_INT2_ISR
  2708 ;;		_RB4_ISR
  2709 ;;		_RB5_ISR
  2710 ;;		_RB6_ISR
  2711 ;;		_RB7_ISR
  2712 ;; This function is called by:
  2713 ;;		Interrupt level 2
  2714 ;; This function uses a non-reentrant model
  2715 ;;
  2716                           
  2717                           	psect	intcode
  2718   000008                     __pintcode:
  2719                           	callstack 0
  2720   000008                     _InterruptManager:
  2721                           	callstack 22
  2722                           
  2723                           ;incstack = 0
  2724   000008  8264               	bsf	int$flags,1,c	;set compiler interrupt flag (level 2)
  2725   00000A  ED0B  F008         	call	int_func,f	;refresh shadow registers
  2726                           
  2727                           	psect	intcode_body
  2728   001016                     __pintcode_body:
  2729                           	callstack 22
  2730   001016                     int_func:
  2731                           	callstack 22
  2732   001016  0006               	pop		; remove dummy address from shadow register refresh
  2733   001018  CFFA F033          	movff	pclath,??_InterruptManager
  2734   00101C  CFFB F034          	movff	pclatu,??_InterruptManager+1
  2735   001020  CFE1 F035          	movff	fsr1l,??_InterruptManager+2
  2736   001024  CFE2 F036          	movff	fsr1h,??_InterruptManager+3
  2737   001028  CFD9 F037          	movff	fsr2l,??_InterruptManager+4
  2738   00102C  CFDA F038          	movff	fsr2h,??_InterruptManager+5
  2739   001030  CFF3 F039          	movff	prodl,??_InterruptManager+6
  2740   001034  CFF4 F03A          	movff	prodh,??_InterruptManager+7
  2741   001038                     
  2742                           ;MCAL_Layer/Interrupt/mcal_interrupt_manager.c: 39:     if(1 == INTCONbits.INT0IE && 1 =
      +                          = INTCONbits.INT0IF)
  2743   001038  A8F2               	btfss	242,4,c	;volatile
  2744   00103A  EF21  F008         	goto	i2u244_41
  2745   00103E  EF23  F008         	goto	i2u244_40
  2746   001042                     i2u244_41:
  2747   001042  EF2C  F008         	goto	i2l674
  2748   001046                     i2u244_40:
  2749   001046  A2F2               	btfss	242,1,c	;volatile
  2750   001048  EF28  F008         	goto	i2u245_41
  2751   00104C  EF2A  F008         	goto	i2u245_40
  2752   001050                     i2u245_41:
  2753   001050  EF2C  F008         	goto	i2l674
  2754   001054                     i2u245_40:
  2755   001054                     
  2756                           ;MCAL_Layer/Interrupt/mcal_interrupt_manager.c: 40:     {;MCAL_Layer/Interrupt/mcal_inte
      +                          rrupt_manager.c: 41:         INT0_ISR();
  2757   001054  EC43  F00E         	call	_INT0_ISR	;wreg free
  2758   001058                     i2l674:
  2759                           
  2760                           ;MCAL_Layer/Interrupt/mcal_interrupt_manager.c: 45:     if(1 == INTCON3bits.INT1IE && 1 
      +                          == INTCON3bits.INT1IF)
  2761   001058  A6F0               	btfss	240,3,c	;volatile
  2762   00105A  EF31  F008         	goto	i2u246_41
  2763   00105E  EF33  F008         	goto	i2u246_40
  2764   001062                     i2u246_41:
  2765   001062  EF3C  F008         	goto	i2l676
  2766   001066                     i2u246_40:
  2767   001066  A0F0               	btfss	240,0,c	;volatile
  2768   001068  EF38  F008         	goto	i2u247_41
  2769   00106C  EF3A  F008         	goto	i2u247_40
  2770   001070                     i2u247_41:
  2771   001070  EF3C  F008         	goto	i2l676
  2772   001074                     i2u247_40:
  2773   001074                     
  2774                           ;MCAL_Layer/Interrupt/mcal_interrupt_manager.c: 46:     {;MCAL_Layer/Interrupt/mcal_inte
      +                          rrupt_manager.c: 47:         INT1_ISR();
  2775   001074  EC2C  F00E         	call	_INT1_ISR	;wreg free
  2776   001078                     i2l676:
  2777                           
  2778                           ;MCAL_Layer/Interrupt/mcal_interrupt_manager.c: 51:     if(1 == INTCON3bits.INT2IE && 1 
      +                          == INTCON3bits.INT2IF)
  2779   001078  A8F0               	btfss	240,4,c	;volatile
  2780   00107A  EF41  F008         	goto	i2u248_41
  2781   00107E  EF43  F008         	goto	i2u248_40
  2782   001082                     i2u248_41:
  2783   001082  EF4C  F008         	goto	i2l678
  2784   001086                     i2u248_40:
  2785   001086  A2F0               	btfss	240,1,c	;volatile
  2786   001088  EF48  F008         	goto	i2u249_41
  2787   00108C  EF4A  F008         	goto	i2u249_40
  2788   001090                     i2u249_41:
  2789   001090  EF4C  F008         	goto	i2l678
  2790   001094                     i2u249_40:
  2791   001094                     
  2792                           ;MCAL_Layer/Interrupt/mcal_interrupt_manager.c: 52:     {;MCAL_Layer/Interrupt/mcal_inte
      +                          rrupt_manager.c: 53:         INT2_ISR();
  2793   001094  EC15  F00E         	call	_INT2_ISR	;wreg free
  2794   001098                     i2l678:
  2795                           
  2796                           ;MCAL_Layer/Interrupt/mcal_interrupt_manager.c: 57:     if(1 == INTCONbits.RBIE && 1 == 
      +                          INTCONbits.RBIF
  2797   001098  A6F2               	btfss	242,3,c	;volatile
  2798   00109A  EF51  F008         	goto	i2u250_41
  2799   00109E  EF53  F008         	goto	i2u250_40
  2800   0010A2                     i2u250_41:
  2801   0010A2  EF70  F008         	goto	i2l679
  2802   0010A6                     i2u250_40:
  2803   0010A6  A0F2               	btfss	242,0,c	;volatile
  2804   0010A8  EF58  F008         	goto	i2u251_41
  2805   0010AC  EF5A  F008         	goto	i2u251_40
  2806   0010B0                     i2u251_41:
  2807   0010B0  EF70  F008         	goto	i2l679
  2808   0010B4                     i2u251_40:
  2809   0010B4  B881               	btfsc	129,4,c	;volatile
  2810   0010B6  EF5F  F008         	goto	i2u252_41
  2811   0010BA  EF61  F008         	goto	i2u252_40
  2812   0010BE                     i2u252_41:
  2813   0010BE  EF70  F008         	goto	i2l679
  2814   0010C2                     i2u252_40:
  2815   0010C2  0422               	decf	_RB4_flag^0,w,c	;volatile
  2816   0010C4  A4D8               	btfss	status,2,c
  2817   0010C6  EF67  F008         	goto	i2u253_41
  2818   0010CA  EF69  F008         	goto	i2u253_40
  2819   0010CE                     i2u253_41:
  2820   0010CE  EF70  F008         	goto	i2l679
  2821   0010D2                     i2u253_40:
  2822   0010D2                     
  2823                           ;MCAL_Layer/Interrupt/mcal_interrupt_manager.c: 59:     {;MCAL_Layer/Interrupt/mcal_inte
      +                          rrupt_manager.c: 60:         RB4_flag = 0;
  2824   0010D2  0E00               	movlw	0
  2825   0010D4  6E22               	movwf	_RB4_flag^0,c	;volatile
  2826   0010D6                     
  2827                           ;MCAL_Layer/Interrupt/mcal_interrupt_manager.c: 61:         RB4_ISR(0);
  2828   0010D6  0E00               	movlw	0
  2829   0010D8  ECD6  F00E         	call	_RB4_ISR
  2830                           
  2831                           ;MCAL_Layer/Interrupt/mcal_interrupt_manager.c: 62:     }
  2832   0010DC  EF92  F008         	goto	i2l680
  2833   0010E0                     i2l679:
  2834   0010E0  A6F2               	btfss	242,3,c	;volatile
  2835   0010E2  EF75  F008         	goto	i2u254_41
  2836   0010E6  EF77  F008         	goto	i2u254_40
  2837   0010EA                     i2u254_41:
  2838   0010EA  EF92  F008         	goto	i2l680
  2839   0010EE                     i2u254_40:
  2840   0010EE  A0F2               	btfss	242,0,c	;volatile
  2841   0010F0  EF7C  F008         	goto	i2u255_41
  2842   0010F4  EF7E  F008         	goto	i2u255_40
  2843   0010F8                     i2u255_41:
  2844   0010F8  EF92  F008         	goto	i2l680
  2845   0010FC                     i2u255_40:
  2846   0010FC  A881               	btfss	129,4,c	;volatile
  2847   0010FE  EF83  F008         	goto	i2u256_41
  2848   001102  EF85  F008         	goto	i2u256_40
  2849   001106                     i2u256_41:
  2850   001106  EF92  F008         	goto	i2l680
  2851   00110A                     i2u256_40:
  2852   00110A  5022               	movf	_RB4_flag^0,w,c	;volatile
  2853   00110C  A4D8               	btfss	status,2,c
  2854   00110E  EF8B  F008         	goto	i2u257_41
  2855   001112  EF8D  F008         	goto	i2u257_40
  2856   001116                     i2u257_41:
  2857   001116  EF92  F008         	goto	i2l680
  2858   00111A                     i2u257_40:
  2859   00111A                     
  2860                           ;MCAL_Layer/Interrupt/mcal_interrupt_manager.c: 65:     {;MCAL_Layer/Interrupt/mcal_inte
      +                          rrupt_manager.c: 66:         RB4_flag = 1;
  2861   00111A  0E01               	movlw	1
  2862   00111C  6E22               	movwf	_RB4_flag^0,c	;volatile
  2863   00111E                     
  2864                           ;MCAL_Layer/Interrupt/mcal_interrupt_manager.c: 67:         RB4_ISR(1);
  2865   00111E  0E01               	movlw	1
  2866   001120  ECD6  F00E         	call	_RB4_ISR
  2867   001124                     i2l680:
  2868                           
  2869                           ;MCAL_Layer/Interrupt/mcal_interrupt_manager.c: 71:     if(1 == INTCONbits.RBIE && 1 == 
      +                          INTCONbits.RBIF
  2870   001124  A6F2               	btfss	242,3,c	;volatile
  2871   001126  EF97  F008         	goto	i2u258_41
  2872   00112A  EF99  F008         	goto	i2u258_40
  2873   00112E                     i2u258_41:
  2874   00112E  EFB6  F008         	goto	i2l683
  2875   001132                     i2u258_40:
  2876   001132  A0F2               	btfss	242,0,c	;volatile
  2877   001134  EF9E  F008         	goto	i2u259_41
  2878   001138  EFA0  F008         	goto	i2u259_40
  2879   00113C                     i2u259_41:
  2880   00113C  EFB6  F008         	goto	i2l683
  2881   001140                     i2u259_40:
  2882   001140  BA81               	btfsc	129,5,c	;volatile
  2883   001142  EFA5  F008         	goto	i2u260_41
  2884   001146  EFA7  F008         	goto	i2u260_40
  2885   00114A                     i2u260_41:
  2886   00114A  EFB6  F008         	goto	i2l683
  2887   00114E                     i2u260_40:
  2888   00114E  0421               	decf	_RB5_flag^0,w,c	;volatile
  2889   001150  A4D8               	btfss	status,2,c
  2890   001152  EFAD  F008         	goto	i2u261_41
  2891   001156  EFAF  F008         	goto	i2u261_40
  2892   00115A                     i2u261_41:
  2893   00115A  EFB6  F008         	goto	i2l683
  2894   00115E                     i2u261_40:
  2895   00115E                     
  2896                           ;MCAL_Layer/Interrupt/mcal_interrupt_manager.c: 73:     {;MCAL_Layer/Interrupt/mcal_inte
      +                          rrupt_manager.c: 74:         RB5_flag = 0;
  2897   00115E  0E00               	movlw	0
  2898   001160  6E21               	movwf	_RB5_flag^0,c	;volatile
  2899   001162                     
  2900                           ;MCAL_Layer/Interrupt/mcal_interrupt_manager.c: 75:         RB5_ISR(0);
  2901   001162  0E00               	movlw	0
  2902   001164  ECC2  F00E         	call	_RB5_ISR
  2903                           
  2904                           ;MCAL_Layer/Interrupt/mcal_interrupt_manager.c: 76:     }
  2905   001168  EFD8  F008         	goto	i2l684
  2906   00116C                     i2l683:
  2907   00116C  A6F2               	btfss	242,3,c	;volatile
  2908   00116E  EFBB  F008         	goto	i2u262_41
  2909   001172  EFBD  F008         	goto	i2u262_40
  2910   001176                     i2u262_41:
  2911   001176  EFD8  F008         	goto	i2l684
  2912   00117A                     i2u262_40:
  2913   00117A  A0F2               	btfss	242,0,c	;volatile
  2914   00117C  EFC2  F008         	goto	i2u263_41
  2915   001180  EFC4  F008         	goto	i2u263_40
  2916   001184                     i2u263_41:
  2917   001184  EFD8  F008         	goto	i2l684
  2918   001188                     i2u263_40:
  2919   001188  AA81               	btfss	129,5,c	;volatile
  2920   00118A  EFC9  F008         	goto	i2u264_41
  2921   00118E  EFCB  F008         	goto	i2u264_40
  2922   001192                     i2u264_41:
  2923   001192  EFD8  F008         	goto	i2l684
  2924   001196                     i2u264_40:
  2925   001196  5021               	movf	_RB5_flag^0,w,c	;volatile
  2926   001198  A4D8               	btfss	status,2,c
  2927   00119A  EFD1  F008         	goto	i2u265_41
  2928   00119E  EFD3  F008         	goto	i2u265_40
  2929   0011A2                     i2u265_41:
  2930   0011A2  EFD8  F008         	goto	i2l684
  2931   0011A6                     i2u265_40:
  2932   0011A6                     
  2933                           ;MCAL_Layer/Interrupt/mcal_interrupt_manager.c: 79:     {;MCAL_Layer/Interrupt/mcal_inte
      +                          rrupt_manager.c: 80:         RB5_flag = 1;
  2934   0011A6  0E01               	movlw	1
  2935   0011A8  6E21               	movwf	_RB5_flag^0,c	;volatile
  2936   0011AA                     
  2937                           ;MCAL_Layer/Interrupt/mcal_interrupt_manager.c: 81:         RB5_ISR(1);
  2938   0011AA  0E01               	movlw	1
  2939   0011AC  ECC2  F00E         	call	_RB5_ISR
  2940   0011B0                     i2l684:
  2941                           
  2942                           ;MCAL_Layer/Interrupt/mcal_interrupt_manager.c: 85:     if(1 == INTCONbits.RBIE && 1 == 
      +                          INTCONbits.RBIF
  2943   0011B0  A6F2               	btfss	242,3,c	;volatile
  2944   0011B2  EFDD  F008         	goto	i2u266_41
  2945   0011B6  EFDF  F008         	goto	i2u266_40
  2946   0011BA                     i2u266_41:
  2947   0011BA  EFFC  F008         	goto	i2l687
  2948   0011BE                     i2u266_40:
  2949   0011BE  A0F2               	btfss	242,0,c	;volatile
  2950   0011C0  EFE4  F008         	goto	i2u267_41
  2951   0011C4  EFE6  F008         	goto	i2u267_40
  2952   0011C8                     i2u267_41:
  2953   0011C8  EFFC  F008         	goto	i2l687
  2954   0011CC                     i2u267_40:
  2955   0011CC  BC81               	btfsc	129,6,c	;volatile
  2956   0011CE  EFEB  F008         	goto	i2u268_41
  2957   0011D2  EFED  F008         	goto	i2u268_40
  2958   0011D6                     i2u268_41:
  2959   0011D6  EFFC  F008         	goto	i2l687
  2960   0011DA                     i2u268_40:
  2961   0011DA  0420               	decf	_RB6_flag^0,w,c	;volatile
  2962   0011DC  A4D8               	btfss	status,2,c
  2963   0011DE  EFF3  F008         	goto	i2u269_41
  2964   0011E2  EFF5  F008         	goto	i2u269_40
  2965   0011E6                     i2u269_41:
  2966   0011E6  EFFC  F008         	goto	i2l687
  2967   0011EA                     i2u269_40:
  2968   0011EA                     
  2969                           ;MCAL_Layer/Interrupt/mcal_interrupt_manager.c: 87:     {;MCAL_Layer/Interrupt/mcal_inte
      +                          rrupt_manager.c: 88:         RB6_flag = 0;
  2970   0011EA  0E00               	movlw	0
  2971   0011EC  6E20               	movwf	_RB6_flag^0,c	;volatile
  2972   0011EE                     
  2973                           ;MCAL_Layer/Interrupt/mcal_interrupt_manager.c: 89:         RB6_ISR(0);
  2974   0011EE  0E00               	movlw	0
  2975   0011F0  ECAE  F00E         	call	_RB6_ISR
  2976                           
  2977                           ;MCAL_Layer/Interrupt/mcal_interrupt_manager.c: 90:     }
  2978   0011F4  EF1E  F009         	goto	i2l688
  2979   0011F8                     i2l687:
  2980   0011F8  A6F2               	btfss	242,3,c	;volatile
  2981   0011FA  EF01  F009         	goto	i2u270_41
  2982   0011FE  EF03  F009         	goto	i2u270_40
  2983   001202                     i2u270_41:
  2984   001202  EF1E  F009         	goto	i2l688
  2985   001206                     i2u270_40:
  2986   001206  A0F2               	btfss	242,0,c	;volatile
  2987   001208  EF08  F009         	goto	i2u271_41
  2988   00120C  EF0A  F009         	goto	i2u271_40
  2989   001210                     i2u271_41:
  2990   001210  EF1E  F009         	goto	i2l688
  2991   001214                     i2u271_40:
  2992   001214  AC81               	btfss	129,6,c	;volatile
  2993   001216  EF0F  F009         	goto	i2u272_41
  2994   00121A  EF11  F009         	goto	i2u272_40
  2995   00121E                     i2u272_41:
  2996   00121E  EF1E  F009         	goto	i2l688
  2997   001222                     i2u272_40:
  2998   001222  5020               	movf	_RB6_flag^0,w,c	;volatile
  2999   001224  A4D8               	btfss	status,2,c
  3000   001226  EF17  F009         	goto	i2u273_41
  3001   00122A  EF19  F009         	goto	i2u273_40
  3002   00122E                     i2u273_41:
  3003   00122E  EF1E  F009         	goto	i2l688
  3004   001232                     i2u273_40:
  3005   001232                     
  3006                           ;MCAL_Layer/Interrupt/mcal_interrupt_manager.c: 93:     {;MCAL_Layer/Interrupt/mcal_inte
      +                          rrupt_manager.c: 94:         RB6_flag = 1;
  3007   001232  0E01               	movlw	1
  3008   001234  6E20               	movwf	_RB6_flag^0,c	;volatile
  3009   001236                     
  3010                           ;MCAL_Layer/Interrupt/mcal_interrupt_manager.c: 95:         RB6_ISR(1);
  3011   001236  0E01               	movlw	1
  3012   001238  ECAE  F00E         	call	_RB6_ISR
  3013   00123C                     i2l688:
  3014                           
  3015                           ;MCAL_Layer/Interrupt/mcal_interrupt_manager.c: 99:     if(1 == INTCONbits.RBIE && 1 == 
      +                          INTCONbits.RBIF
  3016   00123C  A6F2               	btfss	242,3,c	;volatile
  3017   00123E  EF23  F009         	goto	i2u274_41
  3018   001242  EF25  F009         	goto	i2u274_40
  3019   001246                     i2u274_41:
  3020   001246  EF42  F009         	goto	i2l691
  3021   00124A                     i2u274_40:
  3022   00124A  A0F2               	btfss	242,0,c	;volatile
  3023   00124C  EF2A  F009         	goto	i2u275_41
  3024   001250  EF2C  F009         	goto	i2u275_40
  3025   001254                     i2u275_41:
  3026   001254  EF42  F009         	goto	i2l691
  3027   001258                     i2u275_40:
  3028   001258  BE81               	btfsc	129,7,c	;volatile
  3029   00125A  EF31  F009         	goto	i2u276_41
  3030   00125E  EF33  F009         	goto	i2u276_40
  3031   001262                     i2u276_41:
  3032   001262  EF42  F009         	goto	i2l691
  3033   001266                     i2u276_40:
  3034   001266  041F               	decf	_RB7_flag^0,w,c	;volatile
  3035   001268  A4D8               	btfss	status,2,c
  3036   00126A  EF39  F009         	goto	i2u277_41
  3037   00126E  EF3B  F009         	goto	i2u277_40
  3038   001272                     i2u277_41:
  3039   001272  EF42  F009         	goto	i2l691
  3040   001276                     i2u277_40:
  3041   001276                     
  3042                           ;MCAL_Layer/Interrupt/mcal_interrupt_manager.c: 101:     {;MCAL_Layer/Interrupt/mcal_int
      +                          errupt_manager.c: 102:         RB7_flag = 0;
  3043   001276  0E00               	movlw	0
  3044   001278  6E1F               	movwf	_RB7_flag^0,c	;volatile
  3045   00127A                     
  3046                           ;MCAL_Layer/Interrupt/mcal_interrupt_manager.c: 103:         RB7_ISR(0);
  3047   00127A  0E00               	movlw	0
  3048   00127C  EC9A  F00E         	call	_RB7_ISR
  3049                           
  3050                           ;MCAL_Layer/Interrupt/mcal_interrupt_manager.c: 104:     }
  3051   001280  EF64  F009         	goto	i2l695
  3052   001284                     i2l691:
  3053   001284  A6F2               	btfss	242,3,c	;volatile
  3054   001286  EF47  F009         	goto	i2u278_41
  3055   00128A  EF49  F009         	goto	i2u278_40
  3056   00128E                     i2u278_41:
  3057   00128E  EF64  F009         	goto	i2l695
  3058   001292                     i2u278_40:
  3059   001292  A0F2               	btfss	242,0,c	;volatile
  3060   001294  EF4E  F009         	goto	i2u279_41
  3061   001298  EF50  F009         	goto	i2u279_40
  3062   00129C                     i2u279_41:
  3063   00129C  EF64  F009         	goto	i2l695
  3064   0012A0                     i2u279_40:
  3065   0012A0  AE81               	btfss	129,7,c	;volatile
  3066   0012A2  EF55  F009         	goto	i2u280_41
  3067   0012A6  EF57  F009         	goto	i2u280_40
  3068   0012AA                     i2u280_41:
  3069   0012AA  EF64  F009         	goto	i2l695
  3070   0012AE                     i2u280_40:
  3071   0012AE  501F               	movf	_RB7_flag^0,w,c	;volatile
  3072   0012B0  A4D8               	btfss	status,2,c
  3073   0012B2  EF5D  F009         	goto	i2u281_41
  3074   0012B6  EF5F  F009         	goto	i2u281_40
  3075   0012BA                     i2u281_41:
  3076   0012BA  EF64  F009         	goto	i2l695
  3077   0012BE                     i2u281_40:
  3078   0012BE                     
  3079                           ;MCAL_Layer/Interrupt/mcal_interrupt_manager.c: 107:     {;MCAL_Layer/Interrupt/mcal_int
      +                          errupt_manager.c: 108:         RB7_flag = 1;
  3080   0012BE  0E01               	movlw	1
  3081   0012C0  6E1F               	movwf	_RB7_flag^0,c	;volatile
  3082   0012C2                     
  3083                           ;MCAL_Layer/Interrupt/mcal_interrupt_manager.c: 109:         RB7_ISR(1);
  3084   0012C2  0E01               	movlw	1
  3085   0012C4  EC9A  F00E         	call	_RB7_ISR
  3086   0012C8                     i2l695:
  3087   0012C8  C03A  FFF4         	movff	??_InterruptManager+7,prodh
  3088   0012CC  C039  FFF3         	movff	??_InterruptManager+6,prodl
  3089   0012D0  C038  FFDA         	movff	??_InterruptManager+5,fsr2h
  3090   0012D4  C037  FFD9         	movff	??_InterruptManager+4,fsr2l
  3091   0012D8  C036  FFE2         	movff	??_InterruptManager+3,fsr1h
  3092   0012DC  C035  FFE1         	movff	??_InterruptManager+2,fsr1l
  3093   0012E0  C034  FFFB         	movff	??_InterruptManager+1,pclatu
  3094   0012E4  C033  FFFA         	movff	??_InterruptManager,pclath
  3095   0012E8  9264               	bcf	int$flags,1,c	;clear compiler interrupt flag (level 2)
  3096   0012EA  0011               	retfie		f
  3097   0012EC                     __end_of_InterruptManager:
  3098                           	callstack 0
  3099                           
  3100 ;; *************** function _RB7_ISR *****************
  3101 ;; Defined at:
  3102 ;;		line 259 in file "MCAL_Layer/Interrupt/mcal_external_interrupt.c"
  3103 ;; Parameters:    Size  Location     Type
  3104 ;;  RB7_Source      1    wreg     unsigned char 
  3105 ;; Auto vars:     Size  Location     Type
  3106 ;;  RB7_Source      1    7[COMRAM] unsigned char 
  3107 ;;  value           1    6[COMRAM] unsigned char 
  3108 ;;  ret             1    0        unsigned char 
  3109 ;; Return value:  Size  Location     Type
  3110 ;;                  1    wreg      void 
  3111 ;; Registers used:
  3112 ;;		wreg, fsr1l, fsr1h, fsr2l, fsr2h, status,2, status,0, prodl, prodh, cstack
  3113 ;; Tracked objects:
  3114 ;;		On entry : 0/0
  3115 ;;		On exit  : 0/0
  3116 ;;		Unchanged: 0/0
  3117 ;; Data sizes:     COMRAM   BANK0   BANK1   BANK2   BANK3   BANK4   BANK5   BANK6   BANK7   BANK8   BANK9  BANK10  BANK1
      +1  BANK12  BANK13  BANK14  BANK15
  3118 ;;      Params:         0       0       0       0       0       0       0       0       0       0       0       0       
      +0       0       0       0       0
  3119 ;;      Locals:         2       0       0       0       0       0       0       0       0       0       0       0       
      +0       0       0       0       0
  3120 ;;      Temps:          0       0       0       0       0       0       0       0       0       0       0       0       
      +0       0       0       0       0
  3121 ;;      Totals:         2       0       0       0       0       0       0       0       0       0       0       0       
      +0       0       0       0       0
  3122 ;;Total ram usage:        2 bytes
  3123 ;; Hardware stack levels used: 1
  3124 ;; Hardware stack levels required when called: 1
  3125 ;; This function calls:
  3126 ;;		_gpio_port_read_logic
  3127 ;; This function is called by:
  3128 ;;		_InterruptManager
  3129 ;; This function uses a non-reentrant model
  3130 ;;
  3131                           
  3132                           	psect	text20
  3133   001D34                     __ptext20:
  3134                           	callstack 0
  3135   001D34                     _RB7_ISR:
  3136                           	callstack 23
  3137                           
  3138                           ;incstack = 0
  3139                           ;RB7_ISR@RB7_Source stored from wreg
  3140   001D34  6E32               	movwf	RB7_ISR@RB7_Source^0,c
  3141   001D36  0E31               	movlw	low RB7_ISR@value
  3142   001D38  6E2B               	movwf	gpio_port_read_logic@direction^0,c
  3143   001D3A  0E00               	movlw	high RB7_ISR@value
  3144   001D3C  6E2C               	movwf	(gpio_port_read_logic@direction+1)^0,c
  3145   001D3E  0E01               	movlw	1
  3146   001D40  EC0C  F00D         	call	_gpio_port_read_logic
  3147   001D44                     
  3148                           ;MCAL_Layer/Interrupt/mcal_external_interrupt.c: 271:     (INTCONbits.RBIF = 0);
  3149   001D44  90F2               	bcf	242,0,c	;volatile
  3150   001D46                     
  3151                           ;MCAL_Layer/Interrupt/mcal_external_interrupt.c: 274:     if(0 == RB7_Source)
  3152   001D46  5032               	movf	RB7_ISR@RB7_Source^0,w,c
  3153   001D48  A4D8               	btfss	status,2,c
  3154   001D4A  EFA9  F00E         	goto	i2u208_41
  3155   001D4E  EFAB  F00E         	goto	i2u208_40
  3156   001D52                     i2u208_41:
  3157   001D52  EFAD  F00E         	goto	i2l3348
  3158   001D56                     i2u208_40:
  3159   001D56  EFAD  F00E         	goto	i2l545
  3160   001D5A                     i2l3348:
  3161   001D5A                     i2l545:
  3162   001D5A  0012               	return		;funcret
  3163   001D5C                     __end_of_RB7_ISR:
  3164                           	callstack 0
  3165                           
  3166 ;; *************** function _RB6_ISR *****************
  3167 ;; Defined at:
  3168 ;;		line 225 in file "MCAL_Layer/Interrupt/mcal_external_interrupt.c"
  3169 ;; Parameters:    Size  Location     Type
  3170 ;;  RB6_Source      1    wreg     unsigned char 
  3171 ;; Auto vars:     Size  Location     Type
  3172 ;;  RB6_Source      1    7[COMRAM] unsigned char 
  3173 ;;  value           1    6[COMRAM] unsigned char 
  3174 ;;  ret             1    0        unsigned char 
  3175 ;; Return value:  Size  Location     Type
  3176 ;;                  1    wreg      void 
  3177 ;; Registers used:
  3178 ;;		wreg, fsr1l, fsr1h, fsr2l, fsr2h, status,2, status,0, prodl, prodh, cstack
  3179 ;; Tracked objects:
  3180 ;;		On entry : 0/0
  3181 ;;		On exit  : 0/0
  3182 ;;		Unchanged: 0/0
  3183 ;; Data sizes:     COMRAM   BANK0   BANK1   BANK2   BANK3   BANK4   BANK5   BANK6   BANK7   BANK8   BANK9  BANK10  BANK1
      +1  BANK12  BANK13  BANK14  BANK15
  3184 ;;      Params:         0       0       0       0       0       0       0       0       0       0       0       0       
      +0       0       0       0       0
  3185 ;;      Locals:         2       0       0       0       0       0       0       0       0       0       0       0       
      +0       0       0       0       0
  3186 ;;      Temps:          0       0       0       0       0       0       0       0       0       0       0       0       
      +0       0       0       0       0
  3187 ;;      Totals:         2       0       0       0       0       0       0       0       0       0       0       0       
      +0       0       0       0       0
  3188 ;;Total ram usage:        2 bytes
  3189 ;; Hardware stack levels used: 1
  3190 ;; Hardware stack levels required when called: 1
  3191 ;; This function calls:
  3192 ;;		_gpio_port_read_logic
  3193 ;; This function is called by:
  3194 ;;		_InterruptManager
  3195 ;; This function uses a non-reentrant model
  3196 ;;
  3197                           
  3198                           	psect	text21
  3199   001D5C                     __ptext21:
  3200                           	callstack 0
  3201   001D5C                     _RB6_ISR:
  3202                           	callstack 23
  3203                           
  3204                           ;incstack = 0
  3205                           ;RB6_ISR@RB6_Source stored from wreg
  3206   001D5C  6E32               	movwf	RB6_ISR@RB6_Source^0,c
  3207   001D5E  0E31               	movlw	low RB6_ISR@value
  3208   001D60  6E2B               	movwf	gpio_port_read_logic@direction^0,c
  3209   001D62  0E00               	movlw	high RB6_ISR@value
  3210   001D64  6E2C               	movwf	(gpio_port_read_logic@direction+1)^0,c
  3211   001D66  0E01               	movlw	1
  3212   001D68  EC0C  F00D         	call	_gpio_port_read_logic
  3213   001D6C                     
  3214                           ;MCAL_Layer/Interrupt/mcal_external_interrupt.c: 237:     (INTCONbits.RBIF = 0);
  3215   001D6C  90F2               	bcf	242,0,c	;volatile
  3216   001D6E                     
  3217                           ;MCAL_Layer/Interrupt/mcal_external_interrupt.c: 240:     if(0 == RB6_Source)
  3218   001D6E  5032               	movf	RB6_ISR@RB6_Source^0,w,c
  3219   001D70  A4D8               	btfss	status,2,c
  3220   001D72  EFBD  F00E         	goto	i2u207_41
  3221   001D76  EFBF  F00E         	goto	i2u207_40
  3222   001D7A                     i2u207_41:
  3223   001D7A  EFC1  F00E         	goto	i2l3332
  3224   001D7E                     i2u207_40:
  3225   001D7E  EFC1  F00E         	goto	i2l534
  3226   001D82                     i2l3332:
  3227   001D82                     i2l534:
  3228   001D82  0012               	return		;funcret
  3229   001D84                     __end_of_RB6_ISR:
  3230                           	callstack 0
  3231                           
  3232 ;; *************** function _RB5_ISR *****************
  3233 ;; Defined at:
  3234 ;;		line 191 in file "MCAL_Layer/Interrupt/mcal_external_interrupt.c"
  3235 ;; Parameters:    Size  Location     Type
  3236 ;;  RB5_Source      1    wreg     unsigned char 
  3237 ;; Auto vars:     Size  Location     Type
  3238 ;;  RB5_Source      1    7[COMRAM] unsigned char 
  3239 ;;  value           1    6[COMRAM] unsigned char 
  3240 ;;  ret             1    0        unsigned char 
  3241 ;; Return value:  Size  Location     Type
  3242 ;;                  1    wreg      void 
  3243 ;; Registers used:
  3244 ;;		wreg, fsr1l, fsr1h, fsr2l, fsr2h, status,2, status,0, prodl, prodh, cstack
  3245 ;; Tracked objects:
  3246 ;;		On entry : 0/0
  3247 ;;		On exit  : 0/0
  3248 ;;		Unchanged: 0/0
  3249 ;; Data sizes:     COMRAM   BANK0   BANK1   BANK2   BANK3   BANK4   BANK5   BANK6   BANK7   BANK8   BANK9  BANK10  BANK1
      +1  BANK12  BANK13  BANK14  BANK15
  3250 ;;      Params:         0       0       0       0       0       0       0       0       0       0       0       0       
      +0       0       0       0       0
  3251 ;;      Locals:         2       0       0       0       0       0       0       0       0       0       0       0       
      +0       0       0       0       0
  3252 ;;      Temps:          0       0       0       0       0       0       0       0       0       0       0       0       
      +0       0       0       0       0
  3253 ;;      Totals:         2       0       0       0       0       0       0       0       0       0       0       0       
      +0       0       0       0       0
  3254 ;;Total ram usage:        2 bytes
  3255 ;; Hardware stack levels used: 1
  3256 ;; Hardware stack levels required when called: 1
  3257 ;; This function calls:
  3258 ;;		_gpio_port_read_logic
  3259 ;; This function is called by:
  3260 ;;		_InterruptManager
  3261 ;; This function uses a non-reentrant model
  3262 ;;
  3263                           
  3264                           	psect	text22
  3265   001D84                     __ptext22:
  3266                           	callstack 0
  3267   001D84                     _RB5_ISR:
  3268                           	callstack 23
  3269                           
  3270                           ;incstack = 0
  3271                           ;RB5_ISR@RB5_Source stored from wreg
  3272   001D84  6E32               	movwf	RB5_ISR@RB5_Source^0,c
  3273   001D86  0E31               	movlw	low RB5_ISR@value
  3274   001D88  6E2B               	movwf	gpio_port_read_logic@direction^0,c
  3275   001D8A  0E00               	movlw	high RB5_ISR@value
  3276   001D8C  6E2C               	movwf	(gpio_port_read_logic@direction+1)^0,c
  3277   001D8E  0E01               	movlw	1
  3278   001D90  EC0C  F00D         	call	_gpio_port_read_logic
  3279   001D94                     
  3280                           ;MCAL_Layer/Interrupt/mcal_external_interrupt.c: 203:     (INTCONbits.RBIF = 0);
  3281   001D94  90F2               	bcf	242,0,c	;volatile
  3282   001D96                     
  3283                           ;MCAL_Layer/Interrupt/mcal_external_interrupt.c: 206:     if(0 == RB5_Source)
  3284   001D96  5032               	movf	RB5_ISR@RB5_Source^0,w,c
  3285   001D98  A4D8               	btfss	status,2,c
  3286   001D9A  EFD1  F00E         	goto	i2u206_41
  3287   001D9E  EFD3  F00E         	goto	i2u206_40
  3288   001DA2                     i2u206_41:
  3289   001DA2  EFD5  F00E         	goto	i2l3316
  3290   001DA6                     i2u206_40:
  3291   001DA6  EFD5  F00E         	goto	i2l523
  3292   001DAA                     i2l3316:
  3293   001DAA                     i2l523:
  3294   001DAA  0012               	return		;funcret
  3295   001DAC                     __end_of_RB5_ISR:
  3296                           	callstack 0
  3297                           
  3298 ;; *************** function _RB4_ISR *****************
  3299 ;; Defined at:
  3300 ;;		line 157 in file "MCAL_Layer/Interrupt/mcal_external_interrupt.c"
  3301 ;; Parameters:    Size  Location     Type
  3302 ;;  RB4_Source      1    wreg     unsigned char 
  3303 ;; Auto vars:     Size  Location     Type
  3304 ;;  RB4_Source      1    7[COMRAM] unsigned char 
  3305 ;;  value           1    6[COMRAM] unsigned char 
  3306 ;;  ret             1    0        unsigned char 
  3307 ;; Return value:  Size  Location     Type
  3308 ;;                  1    wreg      void 
  3309 ;; Registers used:
  3310 ;;		wreg, fsr1l, fsr1h, fsr2l, fsr2h, status,2, status,0, prodl, prodh, cstack
  3311 ;; Tracked objects:
  3312 ;;		On entry : 0/0
  3313 ;;		On exit  : 0/0
  3314 ;;		Unchanged: 0/0
  3315 ;; Data sizes:     COMRAM   BANK0   BANK1   BANK2   BANK3   BANK4   BANK5   BANK6   BANK7   BANK8   BANK9  BANK10  BANK1
      +1  BANK12  BANK13  BANK14  BANK15
  3316 ;;      Params:         0       0       0       0       0       0       0       0       0       0       0       0       
      +0       0       0       0       0
  3317 ;;      Locals:         2       0       0       0       0       0       0       0       0       0       0       0       
      +0       0       0       0       0
  3318 ;;      Temps:          0       0       0       0       0       0       0       0       0       0       0       0       
      +0       0       0       0       0
  3319 ;;      Totals:         2       0       0       0       0       0       0       0       0       0       0       0       
      +0       0       0       0       0
  3320 ;;Total ram usage:        2 bytes
  3321 ;; Hardware stack levels used: 1
  3322 ;; Hardware stack levels required when called: 1
  3323 ;; This function calls:
  3324 ;;		_gpio_port_read_logic
  3325 ;; This function is called by:
  3326 ;;		_InterruptManager
  3327 ;; This function uses a non-reentrant model
  3328 ;;
  3329                           
  3330                           	psect	text23
  3331   001DAC                     __ptext23:
  3332                           	callstack 0
  3333   001DAC                     _RB4_ISR:
  3334                           	callstack 23
  3335                           
  3336                           ;incstack = 0
  3337                           ;RB4_ISR@RB4_Source stored from wreg
  3338   001DAC  6E32               	movwf	RB4_ISR@RB4_Source^0,c
  3339   001DAE  0E31               	movlw	low RB4_ISR@value
  3340   001DB0  6E2B               	movwf	gpio_port_read_logic@direction^0,c
  3341   001DB2  0E00               	movlw	high RB4_ISR@value
  3342   001DB4  6E2C               	movwf	(gpio_port_read_logic@direction+1)^0,c
  3343   001DB6  0E01               	movlw	1
  3344   001DB8  EC0C  F00D         	call	_gpio_port_read_logic
  3345   001DBC                     
  3346                           ;MCAL_Layer/Interrupt/mcal_external_interrupt.c: 169:     (INTCONbits.RBIF = 0);
  3347   001DBC  90F2               	bcf	242,0,c	;volatile
  3348   001DBE                     
  3349                           ;MCAL_Layer/Interrupt/mcal_external_interrupt.c: 172:     if(0 == RB4_Source)
  3350   001DBE  5032               	movf	RB4_ISR@RB4_Source^0,w,c
  3351   001DC0  A4D8               	btfss	status,2,c
  3352   001DC2  EFE5  F00E         	goto	i2u205_41
  3353   001DC6  EFE7  F00E         	goto	i2u205_40
  3354   001DCA                     i2u205_41:
  3355   001DCA  EFE9  F00E         	goto	i2l3300
  3356   001DCE                     i2u205_40:
  3357   001DCE  EFE9  F00E         	goto	i2l512
  3358   001DD2                     i2l3300:
  3359   001DD2                     i2l512:
  3360   001DD2  0012               	return		;funcret
  3361   001DD4                     __end_of_RB4_ISR:
  3362                           	callstack 0
  3363                           
  3364 ;; *************** function _gpio_port_read_logic *****************
  3365 ;; Defined at:
  3366 ;;		line 256 in file "MCAL_Layer/GPIO/mcal_gpio.c"
  3367 ;; Parameters:    Size  Location     Type
  3368 ;;  port            1    wreg     enum E2819
  3369 ;;  direction       2    0[COMRAM] PTR unsigned char 
  3370 ;;		 -> Interrupt_RBx_Clear_Flag@value(1), RB7_ISR@value(1), RB6_ISR@value(1), RB5_ISR@value(1), 
  3371 ;;		 -> RB4_ISR@value(1), 
  3372 ;; Auto vars:     Size  Location     Type
  3373 ;;  port            1    5[COMRAM] enum E2819
  3374 ;;  ret             1    4[COMRAM] unsigned char 
  3375 ;; Return value:  Size  Location     Type
  3376 ;;                  1    wreg      unsigned char 
  3377 ;; Registers used:
  3378 ;;		wreg, fsr1l, fsr1h, fsr2l, fsr2h, status,2, status,0, prodl, prodh
  3379 ;; Tracked objects:
  3380 ;;		On entry : 0/0
  3381 ;;		On exit  : 0/0
  3382 ;;		Unchanged: 0/0
  3383 ;; Data sizes:     COMRAM   BANK0   BANK1   BANK2   BANK3   BANK4   BANK5   BANK6   BANK7   BANK8   BANK9  BANK10  BANK1
      +1  BANK12  BANK13  BANK14  BANK15
  3384 ;;      Params:         2       0       0       0       0       0       0       0       0       0       0       0       
      +0       0       0       0       0
  3385 ;;      Locals:         2       0       0       0       0       0       0       0       0       0       0       0       
      +0       0       0       0       0
  3386 ;;      Temps:          2       0       0       0       0       0       0       0       0       0       0       0       
      +0       0       0       0       0
  3387 ;;      Totals:         6       0       0       0       0       0       0       0       0       0       0       0       
      +0       0       0       0       0
  3388 ;;Total ram usage:        6 bytes
  3389 ;; Hardware stack levels used: 1
  3390 ;; This function calls:
  3391 ;;		Nothing
  3392 ;; This function is called by:
  3393 ;;		_RB4_ISR
  3394 ;;		_RB5_ISR
  3395 ;;		_RB6_ISR
  3396 ;;		_RB7_ISR
  3397 ;;		_Interrupt_RBx_Clear_Flag
  3398 ;; This function uses a non-reentrant model
  3399 ;;
  3400                           
  3401                           	psect	text24
  3402   001A18                     __ptext24:
  3403                           	callstack 0
  3404   001A18                     _gpio_port_read_logic:
  3405                           	callstack 23
  3406                           
  3407                           ;incstack = 0
  3408                           ;gpio_port_read_logic@port stored from wreg
  3409   001A18  6E30               	movwf	gpio_port_read_logic@port^0,c
  3410   001A1A                     
  3411                           ;MCAL_Layer/GPIO/mcal_gpio.c: 256: Std_ReturnType gpio_port_read_logic(port_index_t port
      +                          , Std_ReturnType* direction);MCAL_Layer/GPIO/mcal_gpio.c: 257: {;MCAL_Layer/GPIO/mcal_gp
      +                          io.c: 258:     Std_ReturnType ret = (Std_ReturnType)0x01;
  3412   001A1A  0E01               	movlw	1
  3413   001A1C  6E2F               	movwf	gpio_port_read_logic@ret^0,c
  3414   001A1E                     
  3415                           ;MCAL_Layer/GPIO/mcal_gpio.c: 260:     if(((void*)0) == direction || port > 4)
  3416   001A1E  502B               	movf	gpio_port_read_logic@direction^0,w,c
  3417   001A20  102C               	iorwf	(gpio_port_read_logic@direction+1)^0,w,c
  3418   001A22  B4D8               	btfsc	status,2,c
  3419   001A24  EF16  F00D         	goto	i2u183_41
  3420   001A28  EF18  F00D         	goto	i2u183_40
  3421   001A2C                     i2u183_41:
  3422   001A2C  EF20  F00D         	goto	i2l3140
  3423   001A30                     i2u183_40:
  3424   001A30  0E04               	movlw	4
  3425   001A32  6430               	cpfsgt	gpio_port_read_logic@port^0,c
  3426   001A34  EF1E  F00D         	goto	i2u184_41
  3427   001A38  EF20  F00D         	goto	i2u184_40
  3428   001A3C                     i2u184_41:
  3429   001A3C  EF24  F00D         	goto	i2l3142
  3430   001A40                     i2u184_40:
  3431   001A40                     i2l3140:
  3432                           
  3433                           ;MCAL_Layer/GPIO/mcal_gpio.c: 261:     {;MCAL_Layer/GPIO/mcal_gpio.c: 262:         ret =
      +                           (Std_ReturnType)0x00;
  3434   001A40  0E00               	movlw	0
  3435   001A42  6E2F               	movwf	gpio_port_read_logic@ret^0,c
  3436                           
  3437                           ;MCAL_Layer/GPIO/mcal_gpio.c: 263:     }
  3438   001A44  EF3A  F00D         	goto	i2l3144
  3439   001A48                     i2l3142:
  3440                           
  3441                           ;MCAL_Layer/GPIO/mcal_gpio.c: 266:     {;MCAL_Layer/GPIO/mcal_gpio.c: 267:         *dire
      +                          ction = *port_registers[port];
  3442   001A48  5030               	movf	gpio_port_read_logic@port^0,w,c
  3443   001A4A  0D02               	mullw	2
  3444   001A4C  0E01               	movlw	low _port_registers
  3445   001A4E  24F3               	addwf	243,w,c
  3446   001A50  6ED9               	movwf	fsr2l,c
  3447   001A52  0E00               	movlw	high _port_registers
  3448   001A54  20F4               	addwfc	prodh,w,c
  3449   001A56  6EDA               	movwf	fsr2h,c
  3450   001A58  CFDE F02D          	movff	postinc2,??_gpio_port_read_logic
  3451   001A5C  CFDD F02E          	movff	postdec2,??_gpio_port_read_logic+1
  3452   001A60  C02D  FFD9         	movff	??_gpio_port_read_logic,fsr2l
  3453   001A64  C02E  FFDA         	movff	??_gpio_port_read_logic+1,fsr2h
  3454   001A68  C02B  FFE1         	movff	gpio_port_read_logic@direction,fsr1l
  3455   001A6C  C02C  FFE2         	movff	gpio_port_read_logic@direction+1,fsr1h
  3456   001A70  CFDF FFE7          	movff	indf2,indf1
  3457   001A74                     i2l3144:
  3458                           
  3459                           ;MCAL_Layer/GPIO/mcal_gpio.c: 270:      return ret;
  3460   001A74  502F               	movf	gpio_port_read_logic@ret^0,w,c
  3461   001A76  0012               	return		;funcret
  3462   001A78                     __end_of_gpio_port_read_logic:
  3463                           	callstack 0
  3464                           
  3465 ;; *************** function _INT2_ISR *****************
  3466 ;; Defined at:
  3467 ;;		line 96 in file "MCAL_Layer/Interrupt/mcal_external_interrupt.c"
  3468 ;; Parameters:    Size  Location     Type
  3469 ;;		None
  3470 ;; Auto vars:     Size  Location     Type
  3471 ;;		None
  3472 ;; Return value:  Size  Location     Type
  3473 ;;                  1    wreg      void 
  3474 ;; Registers used:
  3475 ;;		wreg, status,2, status,0, pcl, pclath, pclatu, tosl, cstack
  3476 ;; Tracked objects:
  3477 ;;		On entry : 0/0
  3478 ;;		On exit  : 0/0
  3479 ;;		Unchanged: 0/0
  3480 ;; Data sizes:     COMRAM   BANK0   BANK1   BANK2   BANK3   BANK4   BANK5   BANK6   BANK7   BANK8   BANK9  BANK10  BANK1
      +1  BANK12  BANK13  BANK14  BANK15
  3481 ;;      Params:         0       0       0       0       0       0       0       0       0       0       0       0       
      +0       0       0       0       0
  3482 ;;      Locals:         0       0       0       0       0       0       0       0       0       0       0       0       
      +0       0       0       0       0
  3483 ;;      Temps:          0       0       0       0       0       0       0       0       0       0       0       0       
      +0       0       0       0       0
  3484 ;;      Totals:         0       0       0       0       0       0       0       0       0       0       0       0       
      +0       0       0       0       0
  3485 ;;Total ram usage:        0 bytes
  3486 ;; Hardware stack levels used: 1
  3487 ;; Hardware stack levels required when called: 2
  3488 ;; This function calls:
  3489 ;;		NULL
  3490 ;;		_INT0_App_ISR
  3491 ;; This function is called by:
  3492 ;;		_InterruptManager
  3493 ;; This function uses a non-reentrant model
  3494 ;;
  3495                           
  3496                           	psect	text25
  3497   001C2A                     __ptext25:
  3498                           	callstack 0
  3499   001C2A                     _INT2_ISR:
  3500                           	callstack 22
  3501   001C2A                     
  3502                           ;MCAL_Layer/Interrupt/mcal_external_interrupt.c: 99:     (INTCON3bits.INT2IF = 0);
  3503   001C2A  92F0               	bcf	240,1,c	;volatile
  3504   001C2C                     
  3505                           ;MCAL_Layer/Interrupt/mcal_external_interrupt.c: 102:     if(INT2_InterruptHandler)
  3506   001C2C  505C               	movf	_INT2_InterruptHandler^0,w,c
  3507   001C2E  105D               	iorwf	(_INT2_InterruptHandler+1)^0,w,c
  3508   001C30  B4D8               	btfsc	status,2,c
  3509   001C32  EF1D  F00E         	goto	i2u203_41
  3510   001C36  EF1F  F00E         	goto	i2u203_40
  3511   001C3A                     i2u203_41:
  3512   001C3A  EF2B  F00E         	goto	i2l491
  3513   001C3E                     i2u203_40:
  3514   001C3E                     
  3515                           ;MCAL_Layer/Interrupt/mcal_external_interrupt.c: 103:     {;MCAL_Layer/Interrupt/mcal_ex
      +                          ternal_interrupt.c: 104:         INT2_InterruptHandler();
  3516   001C3E  D802               	call	i2u204_48
  3517   001C40  EF2B  F00E         	goto	i2u204_49
  3518   001C44                     i2u204_48:
  3519   001C44  0005               	push	
  3520   001C46  6EFA               	movwf	pclath,c
  3521   001C48  505C               	movf	_INT2_InterruptHandler^0,w,c
  3522   001C4A  6EFD               	movwf	tosl,c
  3523   001C4C  505D               	movf	(_INT2_InterruptHandler+1)^0,w,c
  3524   001C4E  6EFE               	movwf	tosh,c
  3525   001C50  6AFF               	clrf	tosu,c
  3526   001C52  50FA               	movf	pclath,w,c
  3527   001C54  0012               	return		;indir
  3528   001C56                     i2u204_49:
  3529   001C56                     i2l491:
  3530   001C56  0012               	return		;funcret
  3531   001C58                     __end_of_INT2_ISR:
  3532                           	callstack 0
  3533                           
  3534 ;; *************** function _INT1_ISR *****************
  3535 ;; Defined at:
  3536 ;;		line 83 in file "MCAL_Layer/Interrupt/mcal_external_interrupt.c"
  3537 ;; Parameters:    Size  Location     Type
  3538 ;;		None
  3539 ;; Auto vars:     Size  Location     Type
  3540 ;;		None
  3541 ;; Return value:  Size  Location     Type
  3542 ;;                  1    wreg      void 
  3543 ;; Registers used:
  3544 ;;		wreg, status,2, status,0, pcl, pclath, pclatu, tosl, cstack
  3545 ;; Tracked objects:
  3546 ;;		On entry : 0/0
  3547 ;;		On exit  : 0/0
  3548 ;;		Unchanged: 0/0
  3549 ;; Data sizes:     COMRAM   BANK0   BANK1   BANK2   BANK3   BANK4   BANK5   BANK6   BANK7   BANK8   BANK9  BANK10  BANK1
      +1  BANK12  BANK13  BANK14  BANK15
  3550 ;;      Params:         0       0       0       0       0       0       0       0       0       0       0       0       
      +0       0       0       0       0
  3551 ;;      Locals:         0       0       0       0       0       0       0       0       0       0       0       0       
      +0       0       0       0       0
  3552 ;;      Temps:          0       0       0       0       0       0       0       0       0       0       0       0       
      +0       0       0       0       0
  3553 ;;      Totals:         0       0       0       0       0       0       0       0       0       0       0       0       
      +0       0       0       0       0
  3554 ;;Total ram usage:        0 bytes
  3555 ;; Hardware stack levels used: 1
  3556 ;; Hardware stack levels required when called: 2
  3557 ;; This function calls:
  3558 ;;		NULL
  3559 ;;		_INT0_App_ISR
  3560 ;; This function is called by:
  3561 ;;		_InterruptManager
  3562 ;; This function uses a non-reentrant model
  3563 ;;
  3564                           
  3565                           	psect	text26
  3566   001C58                     __ptext26:
  3567                           	callstack 0
  3568   001C58                     _INT1_ISR:
  3569                           	callstack 22
  3570   001C58                     
  3571                           ;MCAL_Layer/Interrupt/mcal_external_interrupt.c: 86:     (INTCON3bits.INT1IF = 0);
  3572   001C58  90F0               	bcf	240,0,c	;volatile
  3573   001C5A                     
  3574                           ;MCAL_Layer/Interrupt/mcal_external_interrupt.c: 89:     if(INT1_InterruptHandler)
  3575   001C5A  505E               	movf	_INT1_InterruptHandler^0,w,c
  3576   001C5C  105F               	iorwf	(_INT1_InterruptHandler+1)^0,w,c
  3577   001C5E  B4D8               	btfsc	status,2,c
  3578   001C60  EF34  F00E         	goto	i2u201_41
  3579   001C64  EF36  F00E         	goto	i2u201_40
  3580   001C68                     i2u201_41:
  3581   001C68  EF42  F00E         	goto	i2l486
  3582   001C6C                     i2u201_40:
  3583   001C6C                     
  3584                           ;MCAL_Layer/Interrupt/mcal_external_interrupt.c: 90:     {;MCAL_Layer/Interrupt/mcal_ext
      +                          ernal_interrupt.c: 91:         INT1_InterruptHandler();
  3585   001C6C  D802               	call	i2u202_48
  3586   001C6E  EF42  F00E         	goto	i2u202_49
  3587   001C72                     i2u202_48:
  3588   001C72  0005               	push	
  3589   001C74  6EFA               	movwf	pclath,c
  3590   001C76  505E               	movf	_INT1_InterruptHandler^0,w,c
  3591   001C78  6EFD               	movwf	tosl,c
  3592   001C7A  505F               	movf	(_INT1_InterruptHandler+1)^0,w,c
  3593   001C7C  6EFE               	movwf	tosh,c
  3594   001C7E  6AFF               	clrf	tosu,c
  3595   001C80  50FA               	movf	pclath,w,c
  3596   001C82  0012               	return		;indir
  3597   001C84                     i2u202_49:
  3598   001C84                     i2l486:
  3599   001C84  0012               	return		;funcret
  3600   001C86                     __end_of_INT1_ISR:
  3601                           	callstack 0
  3602                           
  3603 ;; *************** function _INT0_ISR *****************
  3604 ;; Defined at:
  3605 ;;		line 70 in file "MCAL_Layer/Interrupt/mcal_external_interrupt.c"
  3606 ;; Parameters:    Size  Location     Type
  3607 ;;		None
  3608 ;; Auto vars:     Size  Location     Type
  3609 ;;		None
  3610 ;; Return value:  Size  Location     Type
  3611 ;;                  1    wreg      void 
  3612 ;; Registers used:
  3613 ;;		wreg, status,2, status,0, pcl, pclath, pclatu, tosl, cstack
  3614 ;; Tracked objects:
  3615 ;;		On entry : 0/0
  3616 ;;		On exit  : 0/0
  3617 ;;		Unchanged: 0/0
  3618 ;; Data sizes:     COMRAM   BANK0   BANK1   BANK2   BANK3   BANK4   BANK5   BANK6   BANK7   BANK8   BANK9  BANK10  BANK1
      +1  BANK12  BANK13  BANK14  BANK15
  3619 ;;      Params:         0       0       0       0       0       0       0       0       0       0       0       0       
      +0       0       0       0       0
  3620 ;;      Locals:         0       0       0       0       0       0       0       0       0       0       0       0       
      +0       0       0       0       0
  3621 ;;      Temps:          0       0       0       0       0       0       0       0       0       0       0       0       
      +0       0       0       0       0
  3622 ;;      Totals:         0       0       0       0       0       0       0       0       0       0       0       0       
      +0       0       0       0       0
  3623 ;;Total ram usage:        0 bytes
  3624 ;; Hardware stack levels used: 1
  3625 ;; Hardware stack levels required when called: 2
  3626 ;; This function calls:
  3627 ;;		NULL
  3628 ;;		_INT0_App_ISR
  3629 ;; This function is called by:
  3630 ;;		_InterruptManager
  3631 ;; This function uses a non-reentrant model
  3632 ;;
  3633                           
  3634                           	psect	text27
  3635   001C86                     __ptext27:
  3636                           	callstack 0
  3637   001C86                     _INT0_ISR:
  3638                           	callstack 22
  3639   001C86                     
  3640                           ;MCAL_Layer/Interrupt/mcal_external_interrupt.c: 73:     (INTCONbits.INT0IF = 0);
  3641   001C86  92F2               	bcf	242,1,c	;volatile
  3642   001C88                     
  3643                           ;MCAL_Layer/Interrupt/mcal_external_interrupt.c: 76:     if(INT0_InterruptHandler)
  3644   001C88  5060               	movf	_INT0_InterruptHandler^0,w,c
  3645   001C8A  1061               	iorwf	(_INT0_InterruptHandler+1)^0,w,c
  3646   001C8C  B4D8               	btfsc	status,2,c
  3647   001C8E  EF4B  F00E         	goto	i2u199_41
  3648   001C92  EF4D  F00E         	goto	i2u199_40
  3649   001C96                     i2u199_41:
  3650   001C96  EF59  F00E         	goto	i2l481
  3651   001C9A                     i2u199_40:
  3652   001C9A                     
  3653                           ;MCAL_Layer/Interrupt/mcal_external_interrupt.c: 77:     {;MCAL_Layer/Interrupt/mcal_ext
      +                          ernal_interrupt.c: 78:         INT0_InterruptHandler();
  3654   001C9A  D802               	call	i2u200_48
  3655   001C9C  EF59  F00E         	goto	i2u200_49
  3656   001CA0                     i2u200_48:
  3657   001CA0  0005               	push	
  3658   001CA2  6EFA               	movwf	pclath,c
  3659   001CA4  5060               	movf	_INT0_InterruptHandler^0,w,c
  3660   001CA6  6EFD               	movwf	tosl,c
  3661   001CA8  5061               	movf	(_INT0_InterruptHandler+1)^0,w,c
  3662   001CAA  6EFE               	movwf	tosh,c
  3663   001CAC  6AFF               	clrf	tosu,c
  3664   001CAE  50FA               	movf	pclath,w,c
  3665   001CB0  0012               	return		;indir
  3666   001CB2                     i2u200_49:
  3667   001CB2                     i2l481:
  3668   001CB2  0012               	return		;funcret
  3669   001CB4                     __end_of_INT0_ISR:
  3670                           	callstack 0
  3671                           
  3672 ;; *************** function _INT0_App_ISR *****************
  3673 ;; Defined at:
  3674 ;;		line 27 in file "application.c"
  3675 ;; Parameters:    Size  Location     Type
  3676 ;;		None
  3677 ;; Auto vars:     Size  Location     Type
  3678 ;;		None
  3679 ;; Return value:  Size  Location     Type
  3680 ;;                  1    wreg      void 
  3681 ;; Registers used:
  3682 ;;		wreg, status,2, status,0, cstack
  3683 ;; Tracked objects:
  3684 ;;		On entry : 0/0
  3685 ;;		On exit  : 0/0
  3686 ;;		Unchanged: 0/0
  3687 ;; Data sizes:     COMRAM   BANK0   BANK1   BANK2   BANK3   BANK4   BANK5   BANK6   BANK7   BANK8   BANK9  BANK10  BANK1
      +1  BANK12  BANK13  BANK14  BANK15
  3688 ;;      Params:         0       0       0       0       0       0       0       0       0       0       0       0       
      +0       0       0       0       0
  3689 ;;      Locals:         0       0       0       0       0       0       0       0       0       0       0       0       
      +0       0       0       0       0
  3690 ;;      Temps:          0       0       0       0       0       0       0       0       0       0       0       0       
      +0       0       0       0       0
  3691 ;;      Totals:         0       0       0       0       0       0       0       0       0       0       0       0       
      +0       0       0       0       0
  3692 ;;Total ram usage:        0 bytes
  3693 ;; Hardware stack levels used: 1
  3694 ;; Hardware stack levels required when called: 1
  3695 ;; This function calls:
  3696 ;;		_mcal_EEPROM_WriteByte
  3697 ;; This function is called by:
  3698 ;;		_INT0_ISR
  3699 ;;		_INT1_ISR
  3700 ;;		_INT2_ISR
  3701 ;; This function uses a non-reentrant model
  3702 ;;
  3703                           
  3704                           	psect	text28
  3705   001D0A                     __ptext28:
  3706                           	callstack 0
  3707   001D0A                     _INT0_App_ISR:
  3708                           	callstack 22
  3709   001D0A                     
  3710                           ;application.c: 29:     program_selected++;
  3711   001D0A  2A62               	incf	_program_selected^0,f,c	;volatile
  3712   001D0C                     
  3713                           ;application.c: 30:     if(3 == program_selected)
  3714   001D0C  0E03               	movlw	3
  3715   001D0E  1862               	xorwf	_program_selected^0,w,c	;volatile
  3716   001D10  A4D8               	btfss	status,2,c
  3717   001D12  EF8D  F00E         	goto	i2u186_41
  3718   001D16  EF8F  F00E         	goto	i2u186_40
  3719   001D1A                     i2u186_41:
  3720   001D1A  EF91  F00E         	goto	i2l3172
  3721   001D1E                     i2u186_40:
  3722   001D1E                     
  3723                           ;application.c: 31:     {;application.c: 32:         program_selected = 0;
  3724   001D1E  0E00               	movlw	0
  3725   001D20  6E62               	movwf	_program_selected^0,c	;volatile
  3726   001D22                     i2l3172:
  3727                           
  3728                           ;application.c: 34:     ret = mcal_EEPROM_WriteByte(0x3FF, program_selected);
  3729   001D22  0E03               	movlw	3
  3730   001D24  6E2C               	movwf	(mcal_EEPROM_WriteByte@address+1)^0,c
  3731   001D26  682B               	setf	mcal_EEPROM_WriteByte@address^0,c
  3732   001D28  C062  F02D         	movff	_program_selected,mcal_EEPROM_WriteByte@data	;volatile
  3733   001D2C  EC86  F00D         	call	_mcal_EEPROM_WriteByte	;wreg free
  3734   001D30  6E63               	movwf	_ret^0,c
  3735   001D32  0012               	return		;funcret
  3736   001D34                     __end_of_INT0_App_ISR:
  3737                           	callstack 0
  3738                           
  3739 ;; *************** function _mcal_EEPROM_WriteByte *****************
  3740 ;; Defined at:
  3741 ;;		line 10 in file "MCAL_Layer/EEPROM/mcal_eeprom.c"
  3742 ;; Parameters:    Size  Location     Type
  3743 ;;  address         2    0[COMRAM] unsigned short 
  3744 ;;  data            1    2[COMRAM] unsigned char 
  3745 ;; Auto vars:     Size  Location     Type
  3746 ;;  Global_Inter    1    3[COMRAM] unsigned char 
  3747 ;;  ret             1    0        unsigned char 
  3748 ;; Return value:  Size  Location     Type
  3749 ;;                  1    wreg      unsigned char 
  3750 ;; Registers used:
  3751 ;;		wreg, status,2, status,0
  3752 ;; Tracked objects:
  3753 ;;		On entry : 0/0
  3754 ;;		On exit  : 0/0
  3755 ;;		Unchanged: 0/0
  3756 ;; Data sizes:     COMRAM   BANK0   BANK1   BANK2   BANK3   BANK4   BANK5   BANK6   BANK7   BANK8   BANK9  BANK10  BANK1
      +1  BANK12  BANK13  BANK14  BANK15
  3757 ;;      Params:         3       0       0       0       0       0       0       0       0       0       0       0       
      +0       0       0       0       0
  3758 ;;      Locals:         1       0       0       0       0       0       0       0       0       0       0       0       
      +0       0       0       0       0
  3759 ;;      Temps:          0       0       0       0       0       0       0       0       0       0       0       0       
      +0       0       0       0       0
  3760 ;;      Totals:         4       0       0       0       0       0       0       0       0       0       0       0       
      +0       0       0       0       0
  3761 ;;Total ram usage:        4 bytes
  3762 ;; Hardware stack levels used: 1
  3763 ;; This function calls:
  3764 ;;		Nothing
  3765 ;; This function is called by:
  3766 ;;		_INT0_App_ISR
  3767 ;; This function uses a non-reentrant model
  3768 ;;
  3769                           
  3770                           	psect	text29
  3771   001B0C                     __ptext29:
  3772                           	callstack 0
  3773   001B0C                     _mcal_EEPROM_WriteByte:
  3774                           	callstack 22
  3775   001B0C                     
  3776                           ;MCAL_Layer/EEPROM/mcal_eeprom.c: 13:     uint8 Global_Interrupt_Status;;MCAL_Layer/EEPR
      +                          OM/mcal_eeprom.c: 16:     Global_Interrupt_Status = INTCONbits.GIE;
  3777   001B0C  0E00               	movlw	0
  3778   001B0E  BEF2               	btfsc	242,7,c	;volatile
  3779   001B10  0E01               	movlw	1
  3780   001B12  6E2E               	movwf	mcal_EEPROM_WriteByte@Global_Interrupt_Status^0,c
  3781   001B14                     
  3782                           ;MCAL_Layer/EEPROM/mcal_eeprom.c: 18:     EEADR = (uint8)(address & 0xFF);
  3783   001B14  C02B  FFA9         	movff	mcal_EEPROM_WriteByte@address,4009	;volatile
  3784   001B18                     
  3785                           ;MCAL_Layer/EEPROM/mcal_eeprom.c: 19:     EEADRH = (uint8)((address >> 8) & 0x03);
  3786   001B18  502C               	movf	(mcal_EEPROM_WriteByte@address+1)^0,w,c
  3787   001B1A  0B03               	andlw	3
  3788   001B1C  6EAA               	movwf	170,c	;volatile
  3789   001B1E                     
  3790                           ;MCAL_Layer/EEPROM/mcal_eeprom.c: 21:     EEDATA = data;
  3791   001B1E  C02D  FFA8         	movff	mcal_EEPROM_WriteByte@data,4008	;volatile
  3792   001B22                     
  3793                           ;MCAL_Layer/EEPROM/mcal_eeprom.c: 23:     EECON1bits.EEPGD = 0;
  3794   001B22  9EA6               	bcf	166,7,c	;volsfr
  3795   001B24                     
  3796                           ;MCAL_Layer/EEPROM/mcal_eeprom.c: 24:     EECON1bits.CFGS = 0;
  3797   001B24  9CA6               	bcf	166,6,c	;volsfr
  3798   001B26                     
  3799                           ;MCAL_Layer/EEPROM/mcal_eeprom.c: 26:     EECON1bits.WREN = 1;
  3800   001B26  84A6               	bsf	166,2,c	;volsfr
  3801   001B28                     
  3802                           ;MCAL_Layer/EEPROM/mcal_eeprom.c: 28:     (INTCONbits.GIE = 0);
  3803   001B28  9EF2               	bcf	242,7,c	;volatile
  3804   001B2A                     
  3805                           ;MCAL_Layer/EEPROM/mcal_eeprom.c: 30:     EECON2 = 0x55;
  3806   001B2A  0E55               	movlw	85
  3807   001B2C  6EA7               	movwf	167,c	;volsfr
  3808   001B2E                     
  3809                           ;MCAL_Layer/EEPROM/mcal_eeprom.c: 31:     EECON2 = 0xAA;
  3810   001B2E  0EAA               	movlw	170
  3811   001B30  6EA7               	movwf	167,c	;volsfr
  3812   001B32                     
  3813                           ;MCAL_Layer/EEPROM/mcal_eeprom.c: 33:     EECON1bits.WR = 1;
  3814   001B32  82A6               	bsf	166,1,c	;volsfr
  3815   001B34                     i2l763:
  3816   001B34  B2A6               	btfsc	166,1,c	;volsfr
  3817   001B36  EF9F  F00D         	goto	i2u175_41
  3818   001B3A  EFA1  F00D         	goto	i2u175_40
  3819   001B3E                     i2u175_41:
  3820   001B3E  EF9A  F00D         	goto	i2l763
  3821   001B42                     i2u175_40:
  3822   001B42                     
  3823                           ;MCAL_Layer/EEPROM/mcal_eeprom.c: 37:     EECON1bits.WREN = 0;
  3824   001B42  94A6               	bcf	166,2,c	;volsfr
  3825                           
  3826                           ;MCAL_Layer/EEPROM/mcal_eeprom.c: 39:     INTCONbits.GIE = Global_Interrupt_Status;
  3827   001B44  B02E               	btfsc	mcal_EEPROM_WriteByte@Global_Interrupt_Status^0,0,c
  3828   001B46  D002               	bra	i2u176_45
  3829   001B48  9EF2               	bcf	242,7,c	;volatile
  3830   001B4A  D001               	bra	i2u176_46
  3831   001B4C                     i2u176_45:
  3832   001B4C  8EF2               	bsf	242,7,c	;volatile
  3833   001B4E                     i2u176_46:
  3834   001B4E                     
  3835                           ;MCAL_Layer/EEPROM/mcal_eeprom.c: 41:     return ret;
  3836   001B4E  0E01               	movlw	1
  3837   001B50  0012               	return		;funcret
  3838   001B52                     __end_of_mcal_EEPROM_WriteByte:
  3839                           	callstack 0
  3840                           
  3841                           	psect	text30
  3842   000000                     __ptext30:
  3843                           	callstack 0
  3844   000000                     
  3845                           	psect	rparam
  3846   000000                     
  3847                           	psect	temp
  3848   000064                     btemp:
  3849                           	callstack 0
  3850   000064                     	ds	1
  3851   000000                     int$flags	set	btemp
  3852   000000                     wtemp8	set	btemp+1
  3853   000000                     ttemp5	set	btemp+1
  3854   000000                     ttemp6	set	btemp+4
  3855   000000                     ttemp7	set	btemp+8
  3856                           
  3857                           	psect	idloc
  3858                           
  3859                           ;Config register IDLOC0 @ 0x200000
  3860                           ;	unspecified, using default values
  3861   200000                     	org	2097152
  3862   200000  FF                 	db	255
  3863                           
  3864                           ;Config register IDLOC1 @ 0x200001
  3865                           ;	unspecified, using default values
  3866   200001                     	org	2097153
  3867   200001  FF                 	db	255
  3868                           
  3869                           ;Config register IDLOC2 @ 0x200002
  3870                           ;	unspecified, using default values
  3871   200002                     	org	2097154
  3872   200002  FF                 	db	255
  3873                           
  3874                           ;Config register IDLOC3 @ 0x200003
  3875                           ;	unspecified, using default values
  3876   200003                     	org	2097155
  3877   200003  FF                 	db	255
  3878                           
  3879                           ;Config register IDLOC4 @ 0x200004
  3880                           ;	unspecified, using default values
  3881   200004                     	org	2097156
  3882   200004  FF                 	db	255
  3883                           
  3884                           ;Config register IDLOC5 @ 0x200005
  3885                           ;	unspecified, using default values
  3886   200005                     	org	2097157
  3887   200005  FF                 	db	255
  3888                           
  3889                           ;Config register IDLOC6 @ 0x200006
  3890                           ;	unspecified, using default values
  3891   200006                     	org	2097158
  3892   200006  FF                 	db	255
  3893                           
  3894                           ;Config register IDLOC7 @ 0x200007
  3895                           ;	unspecified, using default values
  3896   200007                     	org	2097159
  3897   200007  FF                 	db	255
  3898                           
  3899                           	psect	config
  3900                           
  3901                           ; Padding undefined space
  3902   300000                     	org	3145728
  3903   300000  FF                 	db	255
  3904                           
  3905                           ;Config register CONFIG1H @ 0x300001
  3906                           ;	unspecified, using default values
  3907                           ;	Oscillator Selection bits
  3908                           ;	OSC = 0x7, unprogrammed default
  3909                           ;	Fail-Safe Clock Monitor Enable bit
  3910                           ;	FCMEN = 0x0, unprogrammed default
  3911                           ;	Internal/External Oscillator Switchover bit
  3912                           ;	IESO = 0x0, unprogrammed default
  3913   300001                     	org	3145729
  3914   300001  07                 	db	7
  3915                           
  3916                           ;Config register CONFIG2L @ 0x300002
  3917                           ;	unspecified, using default values
  3918                           ;	Power-up Timer Enable bit
  3919                           ;	PWRT = 0x1, unprogrammed default
  3920                           ;	Brown-out Reset Enable bits
  3921                           ;	BOREN = 0x3, unprogrammed default
  3922                           ;	Brown Out Reset Voltage bits
  3923                           ;	BORV = 0x3, unprogrammed default
  3924   300002                     	org	3145730
  3925   300002  1F                 	db	31
  3926                           
  3927                           ;Config register CONFIG2H @ 0x300003
  3928                           ;	unspecified, using default values
  3929                           ;	Watchdog Timer Enable bit
  3930                           ;	WDT = 0x1, unprogrammed default
  3931                           ;	Watchdog Timer Postscale Select bits
  3932                           ;	WDTPS = 0xF, unprogrammed default
  3933   300003                     	org	3145731
  3934   300003  1F                 	db	31
  3935                           
  3936                           ; Padding undefined space
  3937   300004                     	org	3145732
  3938   300004  FF                 	db	255
  3939                           
  3940                           ;Config register CONFIG3H @ 0x300005
  3941                           ;	unspecified, using default values
  3942                           ;	CCP2 MUX bit
  3943                           ;	CCP2MX = 0x1, unprogrammed default
  3944                           ;	PORTB A/D Enable bit
  3945                           ;	PBADEN = 0x1, unprogrammed default
  3946                           ;	Low-Power Timer1 Oscillator Enable bit
  3947                           ;	LPT1OSC = 0x0, unprogrammed default
  3948                           ;	MCLR Pin Enable bit
  3949                           ;	MCLRE = 0x1, unprogrammed default
  3950   300005                     	org	3145733
  3951   300005  83                 	db	131
  3952                           
  3953                           ;Config register CONFIG4L @ 0x300006
  3954                           ;	unspecified, using default values
  3955                           ;	Stack Full/Underflow Reset Enable bit
  3956                           ;	STVREN = 0x1, unprogrammed default
  3957                           ;	Single-Supply ICSP Enable bit
  3958                           ;	LVP = 0x1, unprogrammed default
  3959                           ;	Extended Instruction Set Enable bit
  3960                           ;	XINST = 0x0, unprogrammed default
  3961                           ;	Background Debugger Enable bit
  3962                           ;	DEBUG = 0x1, unprogrammed default
  3963   300006                     	org	3145734
  3964   300006  85                 	db	133
  3965                           
  3966                           ; Padding undefined space
  3967   300007                     	org	3145735
  3968   300007  FF                 	db	255
  3969                           
  3970                           ;Config register CONFIG5L @ 0x300008
  3971                           ;	unspecified, using default values
  3972                           ;	Code Protection bit
  3973                           ;	CP0 = 0x1, unprogrammed default
  3974                           ;	Code Protection bit
  3975                           ;	CP1 = 0x1, unprogrammed default
  3976                           ;	Code Protection bit
  3977                           ;	CP2 = 0x1, unprogrammed default
  3978                           ;	Code Protection bit
  3979                           ;	CP3 = 0x1, unprogrammed default
  3980   300008                     	org	3145736
  3981   300008  0F                 	db	15
  3982                           
  3983                           ;Config register CONFIG5H @ 0x300009
  3984                           ;	unspecified, using default values
  3985                           ;	Boot Block Code Protection bit
  3986                           ;	CPB = 0x1, unprogrammed default
  3987                           ;	Data EEPROM Code Protection bit
  3988                           ;	CPD = 0x1, unprogrammed default
  3989   300009                     	org	3145737
  3990   300009  C0                 	db	192
  3991                           
  3992                           ;Config register CONFIG6L @ 0x30000A
  3993                           ;	unspecified, using default values
  3994                           ;	Write Protection bit
  3995                           ;	WRT0 = 0x1, unprogrammed default
  3996                           ;	Write Protection bit
  3997                           ;	WRT1 = 0x1, unprogrammed default
  3998                           ;	Write Protection bit
  3999                           ;	WRT2 = 0x1, unprogrammed default
  4000                           ;	Write Protection bit
  4001                           ;	WRT3 = 0x1, unprogrammed default
  4002   30000A                     	org	3145738
  4003   30000A  0F                 	db	15
  4004                           
  4005                           ;Config register CONFIG6H @ 0x30000B
  4006                           ;	unspecified, using default values
  4007                           ;	Configuration Register Write Protection bit
  4008                           ;	WRTC = 0x1, unprogrammed default
  4009                           ;	Boot Block Write Protection bit
  4010                           ;	WRTB = 0x1, unprogrammed default
  4011                           ;	Data EEPROM Write Protection bit
  4012                           ;	WRTD = 0x1, unprogrammed default
  4013   30000B                     	org	3145739
  4014   30000B  E0                 	db	224
  4015                           
  4016                           ;Config register CONFIG7L @ 0x30000C
  4017                           ;	unspecified, using default values
  4018                           ;	Table Read Protection bit
  4019                           ;	EBTR0 = 0x1, unprogrammed default
  4020                           ;	Table Read Protection bit
  4021                           ;	EBTR1 = 0x1, unprogrammed default
  4022                           ;	Table Read Protection bit
  4023                           ;	EBTR2 = 0x1, unprogrammed default
  4024                           ;	Table Read Protection bit
  4025                           ;	EBTR3 = 0x1, unprogrammed default
  4026   30000C                     	org	3145740
  4027   30000C  0F                 	db	15
  4028                           
  4029                           ;Config register CONFIG7H @ 0x30000D
  4030                           ;	unspecified, using default values
  4031                           ;	Boot Block Table Read Protection bit
  4032                           ;	EBTRB = 0x1, unprogrammed default
  4033   30000D                     	org	3145741
  4034   30000D  40                 	db	64
  4035                           tosu	equ	0xFFF
  4036                           tosh	equ	0xFFE
  4037                           tosl	equ	0xFFD
  4038                           stkptr	equ	0xFFC
  4039                           pclatu	equ	0xFFB
  4040                           pclath	equ	0xFFA
  4041                           pcl	equ	0xFF9
  4042                           tblptru	equ	0xFF8
  4043                           tblptrh	equ	0xFF7
  4044                           tblptrl	equ	0xFF6
  4045                           tablat	equ	0xFF5
  4046                           prodh	equ	0xFF4
  4047                           prodl	equ	0xFF3
  4048                           indf0	equ	0xFEF
  4049                           postinc0	equ	0xFEE
  4050                           postdec0	equ	0xFED
  4051                           preinc0	equ	0xFEC
  4052                           plusw0	equ	0xFEB
  4053                           fsr0h	equ	0xFEA
  4054                           fsr0l	equ	0xFE9
  4055                           wreg	equ	0xFE8
  4056                           indf1	equ	0xFE7
  4057                           postinc1	equ	0xFE6
  4058                           postdec1	equ	0xFE5
  4059                           preinc1	equ	0xFE4
  4060                           plusw1	equ	0xFE3
  4061                           fsr1h	equ	0xFE2
  4062                           fsr1l	equ	0xFE1
  4063                           bsr	equ	0xFE0
  4064                           indf2	equ	0xFDF
  4065                           postinc2	equ	0xFDE
  4066                           postdec2	equ	0xFDD
  4067                           preinc2	equ	0xFDC
  4068                           plusw2	equ	0xFDB
  4069                           fsr2h	equ	0xFDA
  4070                           fsr2l	equ	0xFD9
  4071                           status	equ	0xFD8

Data Sizes:
    Strings     3
    Constant    16
    Data        42
    BSS         23
    Persistent  1
    Stack       0

Auto Spaces:
    Space          Size  Autos    Used
    COMRAM          126     33      99
    BANK0           128      0       0
    BANK1           256      0       0
    BANK2           256      0       0
    BANK3           256      0       0
    BANK4           256      0       0
    BANK5           256      0       0
    BANK6           256      0       0
    BANK7           256      0       0
    BANK8           256      0       0
    BANK9           256      0       0
    BANK10          256      0       0
    BANK11          256      0       0
    BANK12          256      0       0
    BANK13          256      0       0
    BANK14          256      0       0
    BANK15          128      0       0

Pointer List with Targets:

    vfprintf$2	PTR PTR void  size(2) Largest target is 2
		 -> sprintf@ap(COMRAM[2]), 

    vfprintf$1	PTR const unsigned char  size(2) Largest target is 3
		 -> STR_3(CODE[3]), STR_2(CODE[3]), STR_1(CODE[3]), 

    vfprintf$0	PTR struct _IO_FILE size(2) Largest target is 12
		 -> sprintf@f(COMRAM[12]), 

    S1917$source	PTR const unsigned char  size(2) Largest target is 0

    f...source	PTR const unsigned char  size(2) Largest target is 0

    S1917$buffer	PTR unsigned char  size(2) Largest target is 0

    f...buffer	PTR unsigned char  size(2) Largest target is 0

    mcal_EEPROM_ReadByte@data	PTR unsigned char  size(2) Largest target is 1
		 -> program_selected(COMRAM[1]), 

    int0_obj.EXT_InterruptHandler	PTR FTN()void  size(2) Largest target is 1
		 -> INT0_App_ISR(), 

    Interrupt_RBx_SetInterruptHandler@_RBx_intr_config.EXT_InterruptHandler_High	PTR FTN()void  size(2) Largest target is 0

    Interrupt_RBx_SetInterruptHandler@_RBx_intr_config.EXT_InterruptHandler_Low	PTR FTN()void  size(2) Largest target is 0

    S827$EXT_InterruptHandler_High	PTR FTN()void  size(2) Largest target is 0

    Interrupt_RBx_Pin_Init@_RBx_intr_config.EXT_InterruptHandler_High	PTR FTN()void  size(2) Largest target is 0

    S827$EXT_InterruptHandler_Low	PTR FTN()void  size(2) Largest target is 0

    Interrupt_RBx_Pin_Init@_RBx_intr_config.EXT_InterruptHandler_Low	PTR FTN()void  size(2) Largest target is 0

    Interrupt_INTx_SetInterruptHandler@_INTx_config.EXT_InterruptHandler	PTR FTN()void  size(2) Largest target is 1
		 -> INT0_App_ISR(), 

    Interrupt_INTx_SetInterruptHandler@_INTx_config	PTR const struct . size(2) Largest target is 6
		 -> int0_obj(COMRAM[6]), 

    Interrupt_INTx_Clear_Flag@_INTx_config.EXT_InterruptHandler	PTR FTN()void  size(2) Largest target is 1
		 -> INT0_App_ISR(), 

    Interrupt_INTx_Clear_Flag@_INTx_config	PTR const struct . size(2) Largest target is 6
		 -> int0_obj(COMRAM[6]), 

    Interrupt_INTx_Pin_Init@_INTx_config.EXT_InterruptHandler	PTR FTN()void  size(2) Largest target is 1
		 -> INT0_App_ISR(), 

    Interrupt_INTx_Pin_Init@_INTx_config	PTR const struct . size(2) Largest target is 6
		 -> int0_obj(COMRAM[6]), 

    Interrupt_INTx_Edge_Init@_INTx_config.EXT_InterruptHandler	PTR FTN()void  size(2) Largest target is 1
		 -> INT0_App_ISR(), 

    Interrupt_INTx_Edge_Init@_INTx_config	PTR const struct . size(2) Largest target is 6
		 -> int0_obj(COMRAM[6]), 

    Interrupt_INTx_Disable@_INTx_config.EXT_InterruptHandler	PTR FTN()void  size(2) Largest target is 1
		 -> INT0_App_ISR(), 

    Interrupt_INTx_Disable@_INTx_config	PTR const struct . size(2) Largest target is 6
		 -> int0_obj(COMRAM[6]), 

    S697$EXT_InterruptHandler	PTR FTN()void  size(2) Largest target is 1
		 -> INT0_App_ISR(), 

    Interrupt_INTx_Enable@_INTx_config.EXT_InterruptHandler	PTR FTN()void  size(2) Largest target is 1
		 -> INT0_App_ISR(), 

    Interrupt_INTx_Enable@_INTx_config	PTR const struct . size(2) Largest target is 6
		 -> int0_obj(COMRAM[6]), 

    RB7_InterruptHandler_High	PTR FTN()void  size(2) Largest target is 1
		 -> NULL(), 

    RB7_InterruptHandler_Low	PTR FTN()void  size(2) Largest target is 1
		 -> NULL(), 

    RB6_InterruptHandler_High	PTR FTN()void  size(2) Largest target is 1
		 -> NULL(), 

    RB6_InterruptHandler_Low	PTR FTN()void  size(2) Largest target is 1
		 -> NULL(), 

    RB5_InterruptHandler_High	PTR FTN()void  size(2) Largest target is 1
		 -> NULL(), 

    RB5_InterruptHandler_Low	PTR FTN()void  size(2) Largest target is 1
		 -> NULL(), 

    RB4_InterruptHandler_High	PTR FTN()void  size(2) Largest target is 1
		 -> NULL(), 

    RB4_InterruptHandler_Low	PTR FTN()void  size(2) Largest target is 1
		 -> NULL(), 

    INT2_InterruptHandler	PTR FTN()void  size(2) Largest target is 1
		 -> INT0_App_ISR(), NULL(), 

    INT1_InterruptHandler	PTR FTN()void  size(2) Largest target is 1
		 -> INT0_App_ISR(), NULL(), 

    INT0_InterruptHandler	PTR FTN()void  size(2) Largest target is 1
		 -> INT0_App_ISR(), NULL(), 

    mcal_interrupt_INTx_Init@_INTx_config	PTR const struct . size(2) Largest target is 6
		 -> int0_obj(COMRAM[6]), 

    gpio_port_read_logic@direction	PTR unsigned char  size(2) Largest target is 1
		 -> Interrupt_RBx_Clear_Flag@value(COMRAM[1]), RB7_ISR@value(COMRAM[1]), RB6_ISR@value(COMRAM[1]), RB5_ISR@value(COMRAM[1]), 
		 -> RB4_ISR@value(COMRAM[1]), 

    gpio_pin_initialize@_pin_config	PTR const struct . size(2) Largest target is 1
		 -> led_2(COMRAM[1]), led_1(COMRAM[1]), 

    gpio_pin_write_logic@_pin_config	PTR const struct . size(2) Largest target is 1
		 -> led_2(COMRAM[1]), led_1(COMRAM[1]), 

    gpio_pin_direction_initialize@_pin_config	PTR const struct . size(2) Largest target is 6
		 -> int0_obj(COMRAM[6]), led_2(COMRAM[1]), led_1(COMRAM[1]), 

    port_registers	PTR volatile unsigned char [5] size(2) Largest target is 1
		 -> PORTE(BITBIGSFRll[1]), PORTD(BITBIGSFRll[1]), PORTC(BITBIGSFRll[1]), PORTB(BITBIGSFRll[1]), 
		 -> PORTA(BITBIGSFRll[1]), 

    lat_registers	PTR volatile unsigned char [5] size(2) Largest target is 1
		 -> LATE(BITBIGSFRlh[1]), LATD(BITBIGSFRlh[1]), LATC(BITBIGSFRlh[1]), LATB(BITBIGSFRlh[1]), 
		 -> LATA(BITBIGSFRll[1]), 

    tris_registers	PTR volatile unsigned char [5] size(2) Largest target is 1
		 -> TRISE(BITBIGSFRhlllll[1]), TRISD(BITBIGSFRhlllll[1]), TRISC(BITBIGSFRhlllll[1]), TRISB(BITBIGSFRhlllll[1]), 
		 -> TRISA(BITBIGSFRll[1]), 

    ecu_led_turn_on@_led_config	PTR const struct . size(2) Largest target is 1
		 -> led_2(COMRAM[1]), led_1(COMRAM[1]), 

    ecu_led_turn_off@_led_config	PTR const struct . size(2) Largest target is 1
		 -> led_2(COMRAM[1]), led_1(COMRAM[1]), 

    ecu_led_initialize@_led_config	PTR const struct . size(2) Largest target is 1
		 -> led_2(COMRAM[1]), led_1(COMRAM[1]), 

    sp__memset	PTR void  size(2) Largest target is 0


Critical Paths under _main in COMRAM

    _program_2->_ecu_led_turn_off
    _program_2->_ecu_led_turn_on
    _program_1->_ecu_led_turn_off
    _program_1->_ecu_led_turn_on
    _ecu_led_turn_on->_gpio_pin_write_logic
    _ecu_led_turn_off->_gpio_pin_write_logic
    _application_initialize->_mcal_interrupt_INTx_Init
    _mcal_interrupt_INTx_Init->_Interrupt_INTx_Pin_Init
    _Interrupt_INTx_Pin_Init->_gpio_pin_direction_initialize
    _ecu_layer_initialize->_ecu_led_initialize
    _ecu_led_initialize->_gpio_pin_initialize
    _gpio_pin_initialize->_gpio_pin_write_logic

Critical Paths under _InterruptManager in COMRAM

    _InterruptManager->_RB4_ISR
    _InterruptManager->_RB5_ISR
    _InterruptManager->_RB6_ISR
    _InterruptManager->_RB7_ISR
    _RB7_ISR->_gpio_port_read_logic
    _RB6_ISR->_gpio_port_read_logic
    _RB5_ISR->_gpio_port_read_logic
    _RB4_ISR->_gpio_port_read_logic
    _INT0_App_ISR->_mcal_EEPROM_WriteByte

Critical Paths under _main in BANK0

    None.

Critical Paths under _InterruptManager in BANK0

    None.

Critical Paths under _main in BANK1

    None.

Critical Paths under _InterruptManager in BANK1

    None.

Critical Paths under _main in BANK2

    None.

Critical Paths under _InterruptManager in BANK2

    None.

Critical Paths under _main in BANK3

    None.

Critical Paths under _InterruptManager in BANK3

    None.

Critical Paths under _main in BANK4

    None.

Critical Paths under _InterruptManager in BANK4

    None.

Critical Paths under _main in BANK5

    None.

Critical Paths under _InterruptManager in BANK5

    None.

Critical Paths under _main in BANK6

    None.

Critical Paths under _InterruptManager in BANK6

    None.

Critical Paths under _main in BANK7

    None.

Critical Paths under _InterruptManager in BANK7

    None.

Critical Paths under _main in BANK8

    None.

Critical Paths under _InterruptManager in BANK8

    None.

Critical Paths under _main in BANK9

    None.

Critical Paths under _InterruptManager in BANK9

    None.

Critical Paths under _main in BANK10

    None.

Critical Paths under _InterruptManager in BANK10

    None.

Critical Paths under _main in BANK11

    None.

Critical Paths under _InterruptManager in BANK11

    None.

Critical Paths under _main in BANK12

    None.

Critical Paths under _InterruptManager in BANK12

    None.

Critical Paths under _main in BANK13

    None.

Critical Paths under _InterruptManager in BANK13

    None.

Critical Paths under _main in BANK14

    None.

Critical Paths under _InterruptManager in BANK14

    None.

Critical Paths under _main in BANK15

    None.

Critical Paths under _InterruptManager in BANK15

    None.

Call Graph Tables:

 ---------------------------------------------------------------------------------
 (Depth) Function   	        Calls       Base Space   Used Autos Params    Refs
 ---------------------------------------------------------------------------------
 (0) _main                                                 0     0      0   31506
             _application_initialize
                   _ecu_led_turn_off
               _mcal_EEPROM_ReadByte
                          _program_1
                          _program_2
 ---------------------------------------------------------------------------------
 (1) _program_2                                            2     2      0    9160
                                             29 COMRAM     2     2      0
                   _ecu_led_turn_off
                    _ecu_led_turn_on
 ---------------------------------------------------------------------------------
 (1) _program_1                                            2     2      0    9160
                                             29 COMRAM     2     2      0
                   _ecu_led_turn_off
                    _ecu_led_turn_on
 ---------------------------------------------------------------------------------
 (2) _ecu_led_turn_on                                      3     1      2    4504
                                             26 COMRAM     3     1      2
               _gpio_pin_write_logic
 ---------------------------------------------------------------------------------
 (2) _ecu_led_turn_off                                     3     1      2    4656
                                             26 COMRAM     3     1      2
               _gpio_pin_write_logic
 ---------------------------------------------------------------------------------
 (1) _mcal_EEPROM_ReadByte                                 5     1      4     264
                                             16 COMRAM     5     1      4
 ---------------------------------------------------------------------------------
 (1) _application_initialize                               0     0      0    8266
               _ecu_layer_initialize
           _mcal_interrupt_INTx_Init
 ---------------------------------------------------------------------------------
 (2) _mcal_interrupt_INTx_Init                             3     1      2    1848
                                             30 COMRAM     3     1      2
          _Interrupt_INTx_Clear_Flag
             _Interrupt_INTx_Disable
           _Interrupt_INTx_Edge_Init
              _Interrupt_INTx_Enable
            _Interrupt_INTx_Pin_Init
 _Interrupt_INTx_SetInterruptHandler
 ---------------------------------------------------------------------------------
 (3) _Interrupt_INTx_SetInterruptHandler                   5     3      2     188
                                             16 COMRAM     5     3      2
 ---------------------------------------------------------------------------------
 (3) _Interrupt_INTx_Pin_Init                              5     3      2     704
                                             25 COMRAM     5     3      2
      _gpio_pin_direction_initialize
 ---------------------------------------------------------------------------------
 (3) _Interrupt_INTx_Enable                                5     3      2     122
                                             16 COMRAM     5     3      2
 ---------------------------------------------------------------------------------
 (3) _Interrupt_INTx_Edge_Init                             5     3      2     254
                                             16 COMRAM     5     3      2
 ---------------------------------------------------------------------------------
 (3) _Interrupt_INTx_Disable                               5     3      2     198
                                             16 COMRAM     5     3      2
 ---------------------------------------------------------------------------------
 (3) _Interrupt_INTx_Clear_Flag                            5     3      2     122
                                             16 COMRAM     5     3      2
 ---------------------------------------------------------------------------------
 (2) _ecu_layer_initialize                                 1     1      0    6418
                 _ecu_led_initialize
 ---------------------------------------------------------------------------------
 (3) _ecu_led_initialize                                   3     1      2    6415
                                             30 COMRAM     3     1      2
                _gpio_pin_initialize
 ---------------------------------------------------------------------------------
 (4) _gpio_pin_initialize                                  4     2      2    6194
                                             26 COMRAM     4     2      2
      _gpio_pin_direction_initialize
               _gpio_pin_write_logic
 ---------------------------------------------------------------------------------
 (3) _gpio_pin_write_logic                                10     7      3    4283
                                             16 COMRAM    10     7      3
 ---------------------------------------------------------------------------------
 (4) _gpio_pin_direction_initialize                        9     7      2     559
                                             16 COMRAM     9     7      2
 ---------------------------------------------------------------------------------
 Estimated maximum stack depth 4
 ---------------------------------------------------------------------------------
 (Depth) Function   	        Calls       Base Space   Used Autos Params    Refs
 ---------------------------------------------------------------------------------
 (6) _InterruptManager                                     8     8      0    3036
                                              8 COMRAM     8     8      0
                           _INT0_ISR
                           _INT1_ISR
                           _INT2_ISR
                            _RB4_ISR
                            _RB5_ISR
                            _RB6_ISR
                            _RB7_ISR
 ---------------------------------------------------------------------------------
 (7) _RB7_ISR                                              3     3      0     561
                                              6 COMRAM     2     2      0
               _gpio_port_read_logic
 ---------------------------------------------------------------------------------
 (7) _RB6_ISR                                              3     3      0     561
                                              6 COMRAM     2     2      0
               _gpio_port_read_logic
 ---------------------------------------------------------------------------------
 (7) _RB5_ISR                                              3     3      0     561
                                              6 COMRAM     2     2      0
               _gpio_port_read_logic
 ---------------------------------------------------------------------------------
 (7) _RB4_ISR                                              3     3      0     561
                                              6 COMRAM     2     2      0
               _gpio_port_read_logic
 ---------------------------------------------------------------------------------
 (8) _gpio_port_read_logic                                 6     4      2     492
                                              0 COMRAM     6     4      2
 ---------------------------------------------------------------------------------
 (7) _INT2_ISR                                             0     0      0     264
                                NULL *
                       _INT0_App_ISR *
 ---------------------------------------------------------------------------------
 (7) _INT1_ISR                                             0     0      0     264
                                NULL *
                       _INT0_App_ISR *
 ---------------------------------------------------------------------------------
 (7) _INT0_ISR                                             0     0      0     264
                                NULL *
                       _INT0_App_ISR *
 ---------------------------------------------------------------------------------
 (8) _INT0_App_ISR                                         0     0      0     264
              _mcal_EEPROM_WriteByte
 ---------------------------------------------------------------------------------
 (9) _mcal_EEPROM_WriteByte                                5     2      3     264
                                              0 COMRAM     4     1      3
 ---------------------------------------------------------------------------------
 (8) NULL(Fake)                                            0     0      0       0
 ---------------------------------------------------------------------------------
 Estimated maximum stack depth 9
 ---------------------------------------------------------------------------------

 Call Graph Graphs:

 _main (ROOT)
   _application_initialize
     _ecu_layer_initialize
       _ecu_led_initialize
         _gpio_pin_initialize
           _gpio_pin_direction_initialize
           _gpio_pin_write_logic
     _mcal_interrupt_INTx_Init
       _Interrupt_INTx_Clear_Flag
       _Interrupt_INTx_Disable
       _Interrupt_INTx_Edge_Init
       _Interrupt_INTx_Enable
       _Interrupt_INTx_Pin_Init
         _gpio_pin_direction_initialize
       _Interrupt_INTx_SetInterruptHandler
   _ecu_led_turn_off
     _gpio_pin_write_logic
   _mcal_EEPROM_ReadByte
   _program_1
     _ecu_led_turn_off
     _ecu_led_turn_on
       _gpio_pin_write_logic
   _program_2
     _ecu_led_turn_off
     _ecu_led_turn_on

 _InterruptManager (ROOT)
   _INT0_ISR
     NULL(Fake) *
     _INT0_App_ISR *
       _mcal_EEPROM_WriteByte
   _INT1_ISR
     NULL(Fake) *
     _INT0_App_ISR *
   _INT2_ISR
     NULL(Fake) *
     _INT0_App_ISR *
   _RB4_ISR
     _gpio_port_read_logic
   _RB5_ISR
     _gpio_port_read_logic
   _RB6_ISR
     _gpio_port_read_logic
   _RB7_ISR
     _gpio_port_read_logic

 Address spaces:
Name               Size   Autos  Total    Cost      Usage
BIGRAM             F7F      0       0      43        0.0%
EEDATA             400      0       0       0        0.0%
BITBANK14          100      0       0      32        0.0%
BANK14             100      0       0      33        0.0%
BITBANK13          100      0       0      30        0.0%
BANK13             100      0       0      31        0.0%
BITBANK12          100      0       0      28        0.0%
BANK12             100      0       0      29        0.0%
BITBANK11          100      0       0      26        0.0%
BANK11             100      0       0      27        0.0%
BITBANK10          100      0       0      24        0.0%
BANK10             100      0       0      25        0.0%
BITBANK9           100      0       0      22        0.0%
BANK9              100      0       0      23        0.0%
BITBANK8           100      0       0      20        0.0%
BANK8              100      0       0      21        0.0%
BITBANK7           100      0       0      18        0.0%
BANK7              100      0       0      19        0.0%
BITBANK6           100      0       0      16        0.0%
BANK6              100      0       0      17        0.0%
BITBANK5           100      0       0      14        0.0%
BANK5              100      0       0      15        0.0%
BITBANK4           100      0       0      12        0.0%
BANK4              100      0       0      13        0.0%
BITBANK3           100      0       0      10        0.0%
BANK3              100      0       0      11        0.0%
BITBANK2           100      0       0       8        0.0%
BANK2              100      0       0       9        0.0%
BITBANK1           100      0       0       6        0.0%
BANK1              100      0       0       7        0.0%
BITBANK15           80      0       0      34        0.0%
BANK15              80      0       0      35        0.0%
BITBANK0            80      0       0       4        0.0%
BANK0               80      0       0       5        0.0%
BITCOMRAM           7E      0       0       0        0.0%
COMRAM              7E     21      63       1       78.6%
BITBIGSFRhllh       2E      0       0      37        0.0%
BITBIGSFRhlllh      16      0       0      38        0.0%
BITBIGSFRhlllll      F      0       0      39        0.0%
BITBIGSFRhh          D      0       0      36        0.0%
BITBIGSFRlh          4      0       0      40        0.0%
BITBIGSFRll          4      0       0      41        0.0%
BIGSFR               0      0       0     200        0.0%
BITSFR               0      0       0     200        0.0%
SFR                  0      0       0     200        0.0%
STACK                0      0       0       2        0.0%
NULL                 0      0       0       0        0.0%
ABS                  0      0      63      42        0.0%
DATA                 0      0      63       3        0.0%
CODE                 0      0       0       0        0.0%


Microchip Technology PIC18 Macro Assembler V2.41 build 20230208172133 
Symbol Table                                                                                   Mon May 08 13:04:42 2023

                            ??_InterruptManager 0033                                             l346 142E  
                                           l274 1CDE                                             l602 19BC  
                                           l604 19C2                                             l284 1BF8  
                                           l365 155A                                             l605 19C8  
                                           l607 1A16                                             l279 1C28  
                                           l616 1716                                             l386 18E6  
                                           l298 1DEC                                             l554 18F4  
                                           l722 1B0A                                             l563 1958  
                                           l556 18FA                                             l476 180C  
                                           l565 195E                                             l557 1900  
                                           l725 1AC0                                             l566 1964  
                                           l574 15A8                                             l559 194E  
                                           l568 19B2                                             l746 1E00  
                                           l771 1B92                                             l589 167C  
                                           l598 179A                                             l769 1B70  
                       __end_of_ecu_led_turn_on 1BFA                                             _ret 0063  
                                           prod 0FF3                                             tosl 0FFD  
                                           wreg 0FE8                       _RB5_InterruptHandler_High 0054  
                               __end_of_RB4_ISR 1DD4                                 __end_of_RB5_ISR 1DAC  
                               __end_of_RB6_ISR 1D84                                 __end_of_RB7_ISR 1D5C  
                                          l3110 1C14                                            l3112 1C26  
                                          l3104 1BFA                                            l3120 1BDC  
                                          l3130 1DD4                                            l3106 1BFA  
                                          l3122 1BE4                                            l3132 1DE0  
                                          l3108 1C0C                                            l3124 1BF6  
                                          l3116 1BCA                                            l3150 179C  
                                          l3118 1BCA                                            l3128 1DD4  
                                          l3160 17FC                                            l3152 17AE  
                                          l3162 180A                                            l3154 17B6  
                                          l3156 17E0                                            l3148 179C  
                                          l3158 17EE                                            l3360 1A78  
                                          l2810 1446                                            l3370 1B56  
                                          l3354 1AC2                                            l3362 1A86  
                                          l2820 152E                                            l2812 1468  
                                          l2900 1A14                                            l3380 1B7E  
                                          l3372 1B68                                            l3356 1AD0  
                                          l3364 1A9C                                            l2830 12EC  
                                          l2814 1470                                            l2822 1558  
                                          l2806 1430                                            l2910 1564  
                                          l3366 1DEE                                            l3382 1B80  
                                          l3374 1B74                                            l3358 1AE6  
                                          l2840 138E                                            l2832 12F0  
                                          l2816 14D2                                            l2808 1434  
                                          l2920 15C8                                            l2912 1580  
                                          l3384 1B82                                            l3376 1B7A  
                                          l3368 1B52                                            l2834 1302  
                                          l2930 1612                                            l2922 15CE  
                                          l2914 1586                                            l3386 1B84  
                                          l3378 1B7C                                            l2844 13EA  
                                          l2836 1324                                            l2860 18B0  
                                          l2932 162E                                            l2924 15EA  
                                          l2916 15A2                                            l2908 155C  
                                          l3388 1B90                                            l3900 1812  
                                          l2838 132C                                            l2846 142C  
                                          l2862 18B8                                            l2854 187C  
                                          l2870 1CB4                                            l2934 1634  
                                          l2926 15F0                                            l2918 15AC  
                                          l2950 172C                                            l3910 1858  
                                          l3902 1826                                            l2864 18E4  
                                          l2856 187C                                            l2872 1CC6  
                                          l2880 1950                                            l2928 160C  
                                          l2936 163C                                            l2960 1798  
                                          l2952 1738                                            l3904 1836  
                                          l2858 188E                                            l2874 1CCE  
                                          l2882 196A                                            l2938 167A  
                                          l2954 1744                                            l2946 1718  
                                          l2970 1686                                            l3906 183E  
                                          l2876 1CDC                                            l2868 1CB4  
                                          l2884 1972                                            l2948 1720  
                                          l2956 174C                                            l2972 169E  
                                          l2980 1714                                            l3908 1850  
                                          l2894 19B4                                            l2886 19B0  
                                          l3950 165C                                            l2990 18EC  
                                          l2958 178A                                            l2974 16B6  
                                          l2896 19CE                                            l3952 1992  
                                          l2992 18EE                                            l3944 16F6  
                                          l2976 16CE                                            l2968 167E  
                                          l3954 19F6                                            l2898 19D6  
                                          l2994 1906                                            l3946 176C  
                                          l2978 16D6                                            l3956 1542  
                                          l3948 192E                                            l2996 190E  
                                          l2988 18E8                                            l3958 1416  
                                          l2998 194C                                            l3898 180E  
                                          STR_1 1011                                            _LATA 0F89  
                                          _LATB 0F8A                                            _LATC 0F8B  
                                          u1600 1302                                            _LATD 0F8C  
                                          u1601 12FE                                            _LATE 0F8D  
                                          u1610 1324                                            u2090 1B68  
                                          u1611 1320                                            u2091 1B64  
                                          u1700 15A2                                            u1701 159E  
                                          u1710 15C8                                            u1711 15C4  
                                          u1640 1402                                            u1624 134C  
                                          u1560 1446                                            u1720 15EA  
                                          u1641 13FC                                            u1625 1348  
                                          u1561 1442                                            u1721 15E6  
                                          u1650 1404                                            u1634 13AE  
                                          u1570 1468                                            u1730 160C  
                                          u1810 1C0C                                            u1635 13AA  
                                          u1571 1464                                            u1731 1608  
                                          u1811 1C08                                            u1660 188E  
                                          u1740 162E                                            u1820 1BDC  
                                          u1661 188A                                            u1741 162A  
                                          u1821 1BD8                                            u1670 18B0  
                                          u1671 18AC                                            u1584 1490  
                                          u1680 1CC6                                            u1585 148C  
                                          u1681 1CC2                                            u1594 14F2  
                                          u1690 1580                                            u1850 17AE  
                                          u1595 14EE                                            u1691 157C  
                                          u1851 17AA                                            u2820 1836  
                                          u2821 1832                                            u2830 1850  
                                          u2831 184C                                            u2847 1A90  
                                          u2857 1AB4                                            u2867 1ADA  
                                          u2877 1AFE                         gpio_port_read_logic@ret 002F  
                                 ?_INT0_App_ISR 002B                                            _main 180E  
                      _RB4_InterruptHandler_Low 005A                        __end_of_ecu_led_turn_off 1C2A  
                                          fsr1h 0FE2                                            fsr2h 0FDA  
                                          indf1 0FE7                                            indf2 0FDF  
                                          fsr1l 0FE1                                            fsr2l 0FD9  
                                          btemp 0064                            _mcal_EEPROM_ReadByte 1B52  
                      _RB7_InterruptHandler_Low 004E                                            prodh 0FF4  
                                          prodl 0FF3                                            start 000E  
                                  ___param_bank 0000                            _gpio_pin_write_logic 1430  
                              __end_of_INT0_ISR 1CB4                                __end_of_INT1_ISR 1C86  
                              __end_of_INT2_ISR 1C58                       ?_Interrupt_INTx_Edge_Init 003B  
                                         ?_main 002B                        ??_application_initialize 004C  
                                         _EEADR 0FA9                                           i2l410 1A76  
                                         i2l512 1DD2                                           i2l523 1DAA  
                                         i2l534 1D82                                           i2l481 1CB2  
                                         i2l545 1D5A                                           i2l491 1C56  
                                         i2l486 1C84                                           i2l680 1124  
                                         i2l729 1D32                                           i2l674 1058  
                                         i2l763 1B34                                           i2l691 1284  
                                         i2l683 116C                                           i2l684 11B0  
                                         i2l676 1078                                           i2l765 1B42  
                                         i2l766 1B50                                           i2l678 1098  
                                         i2l695 12C8                                           i2l687 11F8  
                                         i2l679 10E0                                           i2l688 123C  
                                         _PORTA 0F80                                           _PORTB 0F81  
                                         _PORTC 0F82                                           _PORTD 0F83  
                                         _PORTE 0F84                                           _TRISA 0F92  
                                         _TRISB 0F93                                           _TRISC 0F94  
                                         _TRISD 0F95                                           _TRISE 0F96  
                  mcal_EEPROM_WriteByte@address 002B                        gpio_port_read_logic@port 0030  
                   ecu_led_turn_off@_led_config 0045                                           _led_1 002A  
                                         _led_2 0029                        Interrupt_INTx_Enable@ret 003F  
                                         pclath 0FFA                                           pclatu 0FFB  
                                         tablat 0FF5                                  ??_INT0_App_ISR 002F  
                                         ttemp5 0065                                           ttemp6 0068  
                                         ttemp7 006C                                           status 0FD8  
                         ?_mcal_EEPROM_ReadByte 003B                                           wtemp8 0065  
                        _Interrupt_INTx_Disable 1950                        _mcal_interrupt_INTx_Init 179C  
                ?_gpio_pin_direction_initialize 003B                                 __initialization 1B94  
                                  RB4_ISR@value 0031                                    __end_of_main 187C  
                         ?_gpio_pin_write_logic 003B                              _ecu_led_initialize 1CB4  
                                 _lat_registers 000B                                    RB5_ISR@value 0031  
                                        ??_main 004C                                   __activetblptr 0003  
                                     ??_RB4_ISR 0031                                       ??_RB5_ISR 0031  
                                     ??_RB6_ISR 0031                                       ??_RB7_ISR 0031  
                           ?_ecu_led_initialize 0049                                ?_ecu_led_turn_on 0045  
                                  RB6_ISR@value 0031                                          _EEADRH 0FAA  
                                        _EEDATA 0FA8                                          _EECON2 0FA7  
                         _mcal_EEPROM_WriteByte 1B0C                                          i2l3010 1B14  
                                        i2l3020 1B26                                          i2l3012 1B18  
                                        i2l3030 1B4E                                          i2l3022 1B28  
                                        i2l3014 1B1E                                          i2l3006 1B0C  
                                        i2l3024 1B2A                                          i2l3016 1B22  
                                        i2l3008 1B0C                                          i2l3026 1B2E  
                                        i2l3018 1B24                                          i2l3028 1B32  
                                        i2l3140 1A40                                          i2l3300 1DD2  
                                        i2l3142 1A48                                          i2l3134 1A1A  
                                        i2l3310 1D96                                          i2l3144 1A74  
                                        i2l3136 1A1E                                          i2l3170 1D1E  
                                        i2l3138 1A30                                          i2l3306 1D86  
                                        i2l3322 1D5E                                          i2l3172 1D22  
                                        i2l3316 1DAA                                          i2l3308 1D94  
                                        i2l3332 1D82                                          i2l3324 1D6C  
                                        i2l3340 1D44                                          i2l3166 1D0A  
                                        i2l3326 1D6E                                          i2l3342 1D46  
                                        i2l3168 1D0C                                          i2l3272 1C86  
                                        i2l3280 1C5A                                          i2l3274 1C88  
                                        i2l3282 1C6C                                          i2l3290 1DAE  
                                        i2l3338 1D36                                          i2l3276 1C9A  
                                        i2l3284 1C2A                                          i2l3292 1DBC  
                                        i2l3348 1D5A                                          i2l3278 1C58  
                                        i2l3286 1C2C                                          i2l3294 1DBE  
                                        i2l3288 1C3E                                          i2l3810 1066  
                                        i2l3820 10B4                                          i2l3812 1074  
                                        i2l3804 1038                                          i2l3830 10FC  
                                        i2l3822 10C2                                          i2l3814 1086  
                                        i2l3806 1046                                          i2l3840 1140  
                                        i2l3832 110A                                          i2l3824 10D2  
                                        i2l3816 1094                                          i2l3808 1054  
                                        i2l3850 1188                                          i2l3842 114E  
                                        i2l3834 111A                                          i2l3826 10D6  
                                        i2l3818 10A6                                          i2l3860 11CC  
                                        i2l3852 1196                                          i2l3844 115E  
                                        i2l3836 111E                                          i2l3828 10EE  
                                        i2l3870 1214                                          i2l3862 11DA  
                                        i2l3854 11A6                                          i2l3846 1162  
                                        i2l3838 1132                                          i2l3880 1258  
                                        i2l3872 1222                                          i2l3864 11EA  
                                        i2l3856 11AA                                          i2l3848 117A  
                                        i2l3890 12A0                                          i2l3882 1266  
                                        i2l3874 1232                                          i2l3866 11EE  
                                        i2l3858 11BE                                          i2l3892 12AE  
                                        i2l3884 1276                                          i2l3876 1236  
                                        i2l3868 1206                                          i2l3894 12BE  
                                        i2l3886 127A                                          i2l3878 124A  
                                        i2l3896 12C2                                          i2l3888 1292  
                                  RB7_ISR@value 0031                      ?_Interrupt_INTx_Clear_Flag 003B  
                          ??_ecu_led_initialize 004B                              ecu_led_turn_on@ret 0047  
                                        clear_0 1BBA                                          isa$std 0001  
                 __end_of_Interrupt_INTx_Enable 1950                                    __pdataCOMRAM 0001  
                                  __mediumconst 0000                                          tblptrh 0FF7  
                                        tblptrl 0FF6                                          tblptru 0FF8  
                  __end_of_gpio_port_read_logic 1A78                          ??_mcal_EEPROM_ReadByte 003F  
                                    __accesstop 0080                         __end_of__initialization 1BC0  
                                     ?_INT0_ISR 002B                                       ?_INT1_ISR 002B  
                                     ?_INT2_ISR 002B                                   ___rparam_used 0001  
             __end_of_Interrupt_INTx_Clear_Flag 1A18                         _Interrupt_INTx_Pin_Init 1718  
                             RB5_ISR@RB5_Source 0032                          ??_gpio_pin_write_logic 003E  
                                __pcstackCOMRAM 002B                            __end_of_INT0_App_ISR 1D34  
      gpio_pin_direction_initialize@_pin_config 003B                          ?_mcal_EEPROM_WriteByte 002B  
             Interrupt_INTx_Enable@_INTx_config 003B                           _INT0_InterruptHandler 0060  
                                    ??_INT0_ISR 002F                                      ??_INT1_ISR 002F  
                                    ??_INT2_ISR 002F                          _application_initialize 1DEE  
                                    __pnvCOMRAM 0063                               ?_ecu_led_turn_off 0045  
              __end_of_Interrupt_INTx_Edge_Init 167E                              ??_ecu_led_turn_off 0047  
    __end_of_Interrupt_INTx_SetInterruptHandler 1718            ??_Interrupt_INTx_SetInterruptHandler 003D  
           ?_Interrupt_INTx_SetInterruptHandler 003B              _Interrupt_INTx_SetInterruptHandler 167E  
                             RB7_ISR@RB7_Source 0032                                         _RB4_ISR 1DAC  
                                       _RB5_ISR 1D84                                         _RB6_ISR 1D5C  
                                       _RB7_ISR 1D34                       _RB6_InterruptHandler_High 0050  
                    ??_mcal_interrupt_INTx_Init 004B                         ?_Interrupt_INTx_Disable 003B  
                                _tris_registers 0015                        _RB6_InterruptHandler_Low 0052  
                     ??_Interrupt_INTx_Pin_Init 0046                             ecu_led_turn_off@ret 0047  
                                       __Hparam 0000                                         __Lparam 0000  
                           _gpio_pin_initialize 187C                            _gpio_port_read_logic 1A18  
                    ecu_led_turn_on@_led_config 0045                                    __psmallconst 1000  
                                       __pcinit 1B94                                         __ramtop 1000  
                                       __ptext0 180E                                         __ptext1 1A78  
                                       __ptext2 1AC2                                         __ptext3 1BCA  
                                       __ptext4 1BFA                                         __ptext5 1B52  
                                       __ptext6 1DEE                                         __ptext7 179C  
                                       __ptext8 167E                                         __ptext9 1718  
               ??_gpio_pin_direction_initialize 003D                            ?_gpio_pin_initialize 0045  
                __end_of_Interrupt_INTx_Disable 19B4                                  __pintcode_body 1016  
                          end_of_initialization 1BC0                            __end_of_keypad_valus 1011  
                       mcal_EEPROM_ReadByte@ret 003F                                         int_func 1016  
                   ??_Interrupt_INTx_Clear_Flag 003D                           ecu_led_initialize@ret 004B  
                             __end_of_program_1 1B0C                               __end_of_program_2 1AC2  
                         ?_gpio_port_read_logic 002B                                         postdec1 0FE5  
                                       postdec2 0FDD                        _Interrupt_INTx_Edge_Init 155C  
                                       postinc0 0FEE                                         postinc2 0FDE  
                         _INT1_InterruptHandler 005E                                       _PORTBbits 0F81  
                              _InterruptManager 0008                           ??_gpio_pin_initialize 0047  
                   Interrupt_INTx_Edge_Init@ret 003F                                    _INT0_App_ISR 1D0A  
                                 __pidataCOMRAM 1CE0           Interrupt_INTx_Clear_Flag@_INTx_config 003B  
                     _Interrupt_INTx_Clear_Flag 19B4                           _Interrupt_INTx_Enable 18E8  
                           start_initialization 1B94                         ??_mcal_EEPROM_WriteByte 002E  
              __end_of_mcal_interrupt_INTx_Init 180E           __end_of_gpio_pin_direction_initialize 1430  
                 _gpio_pin_direction_initialize 12EC                   gpio_port_read_logic@direction 002B  
                       ?_application_initialize 002B                       mcal_EEPROM_WriteByte@data 002D  
                        ??_gpio_port_read_logic 002D                     mcal_interrupt_INTx_Init@ret 004B  
                  __end_of_ecu_layer_initialize 1DEE                                        ?_RB4_ISR 002B  
                                      ?_RB5_ISR 002B                                        ?_RB6_ISR 002B  
                                      ?_RB7_ISR 002B                                     __pbssCOMRAM 004C  
                 ecu_led_initialize@_led_config 0049                  __end_of_application_initialize 1E02  
                         _INT2_InterruptHandler 005C                               ??_ecu_led_turn_on 0047  
                                     __pintcode 0008                 gpio_pin_write_logic@_pin_config 003B  
                     gpio_pin_write_logic@logic 003D                                    _keypad_valus 1001  
                        ?_Interrupt_INTx_Enable 003B              Interrupt_INTx_Disable@_INTx_config 003B  
                                   __smallconst 1000                       _RB4_InterruptHandler_High 0058  
                     _RB7_InterruptHandler_High 004C                      ??_Interrupt_INTx_Edge_Init 003D  
                                      _INT0_ISR 1C86                                        _INT1_ISR 1C58  
                                      _INT2_ISR 1C2A                        _RB5_InterruptHandler_Low 0056  
                             RB4_ISR@RB4_Source 0032                        __end_of_InterruptManager 12EC  
                                      _RB4_flag 0022                                        _RB5_flag 0021  
                                      _RB6_flag 0020                                        _RB7_flag 001F  
                                      i2u200_48 1CA0                                        i2u201_40 1C6C  
                                      i2u200_49 1CB2                                        i2u201_41 1C68  
                                      i2u202_48 1C72                                        i2u203_40 1C3E  
                                      i2u202_49 1C84                                        i2u203_41 1C3A  
                                      i2u204_48 1C44                                        i2u205_40 1DCE  
                                      i2u204_49 1C56                                        i2u205_41 1DCA  
                                      i2u206_40 1DA6                                        i2u206_41 1DA2  
                                      i2u207_40 1D7E                                        i2u207_41 1D7A  
                                      i2u208_40 1D56                                        i2u208_41 1D52  
                                      i2u250_40 10A6                                        i2u250_41 10A2  
                                      i2u251_40 10B4                                        i2u251_41 10B0  
                                      i2u260_40 114E                                        i2u252_40 10C2  
                                      i2u244_40 1046                                        i2u260_41 114A  
                                      i2u252_41 10BE                                        i2u244_41 1042  
                                      i2u261_40 115E                                        i2u253_40 10D2  
                                      i2u245_40 1054                                        i2u261_41 115A  
                                      i2u253_41 10CE                                        i2u245_41 1050  
                                      i2u270_40 1206                                        i2u262_40 117A  
                                      i2u254_40 10EE                                        i2u246_40 1066  
                                      i2u270_41 1202                                        i2u262_41 1176  
                                      i2u254_41 10EA                                        i2u246_41 1062  
                                      i2u175_40 1B42                                        i2u183_40 1A30  
                                      i2u271_40 1214                                        i2u263_40 1188  
                                      i2u255_40 10FC                                        i2u247_40 1074  
                                      i2u175_41 1B3E                                        i2u183_41 1A2C  
                                      i2u271_41 1210                                        i2u263_41 1184  
                                      i2u255_41 10F8                                        i2u247_41 1070  
                                      i2u184_40 1A40                                        i2u280_40 12AE  
                                      i2u272_40 1222                                        i2u264_40 1196  
                                      i2u256_40 110A                                        i2u248_40 1086  
                                      i2u184_41 1A3C                                        i2u280_41 12AA  
                                      i2u272_41 121E                                        i2u264_41 1192  
                                      i2u256_41 1106                                        i2u248_41 1082  
                                      i2u176_45 1B4C                                        i2u176_46 1B4E  
                                      i2u281_40 12BE                                        i2u273_40 1232  
                                      i2u265_40 11A6                                        i2u257_40 111A  
                                      i2u249_40 1094                                        i2u281_41 12BA  
                                      i2u273_41 122E                                        i2u265_41 11A2  
                                      i2u257_41 1116                                        i2u249_41 1090  
                                      i2u186_40 1D1E                                        i2u274_40 124A  
                                      i2u266_40 11BE                                        i2u258_40 1132  
                                      i2u186_41 1D1A                                        i2u274_41 1246  
                                      i2u266_41 11BA                                        i2u258_41 112E  
                                      i2u275_40 1258                                        i2u267_40 11CC  
                                      i2u259_40 1140                                        i2u275_41 1254  
                                      i2u267_41 11C8                                        i2u259_41 113C  
                                      i2u276_40 1266                                        i2u268_40 11DA  
                                      i2u276_41 1262                                        i2u268_41 11D6  
                                      i2u277_40 1276                                        i2u269_40 11EA  
                                      i2u277_41 1272                                        i2u269_41 11E6  
                                      i2u278_40 1292                                        i2u278_41 128E  
                                      i2u199_40 1C9A                                        i2u279_40 12A0  
                                      i2u199_41 1C96                                        i2u279_41 129C  
              gpio_pin_direction_initialize@ret 0043                       ?_mcal_interrupt_INTx_Init 0049  
                                     _program_1 1AC2                                       _program_2 1A78  
                   mcal_EEPROM_ReadByte@address 003B                                      _ADCON1bits 0FC1  
Interrupt_INTx_SetInterruptHandler@_INTx_config 003B                                _program_selected 0062  
                        gpio_pin_initialize@ret 0048                         gpio_pin_write_logic@ret 0044  
                                   _INTCON2bits 0FF1    mcal_EEPROM_WriteByte@Global_Interrupt_Status 002E  
                                   _INTCON3bits 0FF0                                       copy_data0 1BA8  
                      ?_Interrupt_INTx_Pin_Init 0044                            _ecu_layer_initialize 1DD4  
          mcal_interrupt_INTx_Init@_INTx_config 0049                                      _EECON1bits 0FA6  
                                      __Hrparam 0000                                        __Lrparam 0000  
                             RB6_ISR@RB6_Source 0032                                      ?_program_1 002B  
                                    ?_program_2 002B                       Interrupt_INTx_Disable@ret 003F  
                              _ecu_led_turn_off 1BFA                     __end_of_gpio_pin_initialize 18E8  
                gpio_pin_initialize@_pin_config 0045                                        __ptext10 18E8  
                                      __ptext11 155C                                        __ptext20 1D34  
                                      __ptext12 1950                                        __ptext21 1D5C  
                                      __ptext13 19B4                                        __ptext30 0000  
                                      __ptext22 1D84                                        __ptext14 1DD4  
                                      __ptext23 1DAC                                        __ptext15 1CB4  
                                      __ptext24 1A18                                        __ptext16 187C  
                                      __ptext25 1C2A                                        __ptext17 1430  
                                      __ptext26 1C58                                        __ptext18 12EC  
                                      __ptext27 1C86                                        __ptext28 1D0A  
                                      __ptext29 1B0C                   __end_of_mcal_EEPROM_WriteByte 1B52  
                                      _int0_obj 0023                           ?_ecu_layer_initialize 002B  
                    __end_of_ecu_led_initialize 1CE0                                        isa$xinst 0000  
                                      int$flags 0064                    __end_of_mcal_EEPROM_ReadByte 1B94  
                      ??_Interrupt_INTx_Disable 003D                                      _INTCONbits 0FF2  
          Interrupt_INTx_Edge_Init@_INTx_config 003B                 __end_of_Interrupt_INTx_Pin_Init 179C  
                      mcal_EEPROM_ReadByte@data 003D                    __end_of_gpio_pin_write_logic 155C  
                               _ecu_led_turn_on 1BCA             Interrupt_INTx_Pin_Init@_INTx_config 0044  
                                      intlevel2 0000                    Interrupt_INTx_Clear_Flag@ret 003F  
         Interrupt_INTx_SetInterruptHandler@ret 003F                      Interrupt_INTx_Pin_Init@ret 0048  
                       ??_Interrupt_INTx_Enable 003D                                     ??_program_1 0048  
                                   ??_program_2 0048                                  _port_registers 0001  
                               fp__INT0_App_ISR 0000                          ??_ecu_layer_initialize 004C  
                             ?_InterruptManager 002B  
