

Microchip MPLAB XC8 Assembler V2.41 build 20230208172133 
                                                                                               Wed Nov 01 11:08:52 2023

Microchip MPLAB XC8 C Compiler v2.41 (Free license) build 20230208172133 Og1 
     1                           	processor	18F4620
     2                           	fnconf	rparam,??,?,0
     3                           	pagewidth 120
     4                           	opt	flic
     5                           	psect	idataCOMRAM,global,class=CODE,delta=1,noexec
     6                           	psect	smallconst,global,reloc=2,class=SMALLCONST,delta=1,noexec
     7                           	psect	nvCOMRAM,global,class=COMRAM,space=1,delta=1,lowdata,noexec
     8                           	psect	cinit,global,reloc=2,class=CODE,delta=1
     9                           	psect	bssCOMRAM,global,class=COMRAM,space=1,delta=1,lowdata,noexec
    10                           	psect	dataCOMRAM,global,class=COMRAM,space=1,delta=1,lowdata,noexec
    11                           	psect	cstackBANK0,global,class=BANK0,space=1,delta=1,lowdata,noexec
    12                           	psect	cstackCOMRAM,global,class=COMRAM,space=1,delta=1,lowdata,noexec
    13                           	psect	text0,global,reloc=2,class=CODE,delta=1
    14                           	psect	text1,global,reloc=2,class=CODE,delta=1
    15                           	psect	text2,global,reloc=2,class=CODE,delta=1
    16                           	psect	text3,global,reloc=2,class=CODE,delta=1
    17                           	psect	text4,global,reloc=2,class=CODE,delta=1
    18                           	psect	text5,global,reloc=2,class=CODE,delta=1,inline
    19                           	psect	text6,global,reloc=2,class=CODE,delta=1,inline
    20                           	psect	text7,global,reloc=2,class=CODE,delta=1,inline
    21                           	psect	text8,global,reloc=2,class=CODE,delta=1,inline
    22                           	psect	text9,global,reloc=2,class=CODE,delta=1
    23                           	psect	text10,global,reloc=2,class=CODE,delta=1
    24                           	psect	text11,global,reloc=2,class=CODE,delta=1
    25                           	psect	text12,global,reloc=2,class=CODE,delta=1
    26                           	psect	text13,global,reloc=2,class=CODE,delta=1
    27                           	psect	intcodelo,global,reloc=2,class=CODE,delta=1
    28                           	psect	text15,global,reloc=2,class=CODE,delta=1
    29                           	psect	intcode,global,reloc=2,class=CODE,delta=1
    30                           	psect	intcode_body,global,reloc=2,class=CODE,delta=1
    31                           	psect	text17,global,reloc=2,class=CODE,delta=1
    32                           	psect	text18,global,reloc=2,class=CODE,delta=1,inline
    33                           	psect	text19,global,reloc=2,class=CODE,delta=1
    34                           	psect	text20,global,reloc=2,class=CODE,delta=1
    35                           	psect	text21,global,reloc=2,class=CODE,delta=1
    36                           	psect	intsave_regs,global,class=BIGRAM,space=1,delta=1,noexec
    37                           	psect	text22,global,reloc=2,class=CODE,delta=1
    38                           	psect	rparam,global,class=COMRAM,space=1,delta=1,noexec
    39                           	psect	temp,global,ovrld,common,class=COMRAM,space=1,delta=1
    40                           	psect	idloc,global,abs,ovrld,class=IDLOC,space=5,delta=1,noexec
    41                           	psect	config,global,abs,ovrld,class=CONFIG,space=4,delta=1,noexec
    42   000000                     
    43                           ; Version 2.40
    44                           ; Generated 17/11/2021 GMT
    45                           ; 
    46                           ; Copyright © 2021, Microchip Technology Inc. and its subsidiaries ("Microchip")
    47                           ; All rights reserved.
    48                           ; 
    49                           ; This software is developed by Microchip Technology Inc. and its subsidiaries ("Microch
      +                          ip").
    50                           ; 
    51                           ; Redistribution and use in source and binary forms, with or without modification, are
    52                           ; permitted provided that the following conditions are met:
    53                           ; 
    54                           ;     1. Redistributions of source code must retain the above copyright notice, this lis
      +                          t of
    55                           ;        conditions and the following disclaimer.
    56                           ; 
    57                           ;     2. Redistributions in binary form must reproduce the above copyright notice, this 
      +                          list
    58                           ;        of conditions and the following disclaimer in the documentation and/or other
    59                           ;        materials provided with the distribution. Publication is not required when
    60                           ;        this file is used in an embedded application.
    61                           ; 
    62                           ;     3. Microchip's name may not be used to endorse or promote products derived from th
      +                          is
    63                           ;        software without specific prior written permission.
    64                           ; 
    65                           ; THIS SOFTWARE IS PROVIDED BY MICROCHIP "AS IS" AND ANY EXPRESS OR IMPLIED WARRANTIES,
    66                           ; INCLUDING, BUT NOT LIMITED TO, THE IMPLIED WARRANTIES OF MERCHANTABILITY AND FITNESS F
      +                          OR
    67                           ; PURPOSE ARE DISCLAIMED.  IN NO EVENT SHALL MICROCHIP BE LIABLE FOR ANY DIRECT, INDIREC
      +                          T,
    68                           ; INCIDENTAL, SPECIAL, EXEMPLARY, OR CONSEQUENTIAL DAMAGES (INCLUDING BUT NOT LIMITED TO
    69                           ; PROCUREMENT OF SUBSTITUTE GOODS OR SERVICES; LOSS OF USE, DATA OR PROFITS; OR BUSINESS
    70                           ; INTERRUPTION) HOWSOEVER CAUSED AND ON ANY THEORY OF LIABILITY, WHETHER IN CONTRACT, ST
      +                          RICT
    71                           ; LIABILITY, OR TORT (INCLUDING NEGLIGENCE OR OTHERWISE) ARISING IN ANY WAY OUT OF THE U
      +                          SE OF
    72                           ; THIS SOFTWARE, EVEN IF ADVISED OF THE POSSIBILITY OF SUCH DAMAGE.
    73                           ; 
    74                           ; 
    75                           ; Code-generator required, PIC18F4620 Definitions
    76                           ; 
    77                           ; SFR Addresses
    78   000000                     
    79                           	psect	idataCOMRAM
    80   0016A6                     __pidataCOMRAM:
    81                           	callstack 0
    82                           
    83                           ;initializer for _port_registers
    84   0016A6  80                 	db	128
    85   0016A7  0F                 	db	15
    86   0016A8  81                 	db	129
    87   0016A9  0F                 	db	15
    88   0016AA  82                 	db	130
    89   0016AB  0F                 	db	15
    90   0016AC  83                 	db	131
    91   0016AD  0F                 	db	15
    92   0016AE  84                 	db	132
    93   0016AF  0F                 	db	15
    94                           
    95                           ;initializer for _lat_registers
    96   0016B0  89                 	db	137
    97   0016B1  0F                 	db	15
    98   0016B2  8A                 	db	138
    99   0016B3  0F                 	db	15
   100   0016B4  8B                 	db	139
   101   0016B5  0F                 	db	15
   102   0016B6  8C                 	db	140
   103   0016B7  0F                 	db	15
   104   0016B8  8D                 	db	141
   105   0016B9  0F                 	db	15
   106                           
   107                           ;initializer for _tris_registers
   108   0016BA  92                 	db	146
   109   0016BB  0F                 	db	15
   110   0016BC  93                 	db	147
   111   0016BD  0F                 	db	15
   112   0016BE  94                 	db	148
   113   0016BF  0F                 	db	15
   114   0016C0  95                 	db	149
   115   0016C1  0F                 	db	15
   116   0016C2  96                 	db	150
   117   0016C3  0F                 	db	15
   118                           
   119                           ;initializer for Timer0_Mode_Select@F2936
   120   0016C4  60                 	db	96
   121                           
   122                           ;initializer for _RB7_flag
   123   0016C5  01                 	db	1
   124                           
   125                           ;initializer for _RB6_flag
   126   0016C6  01                 	db	1
   127                           
   128                           ;initializer for _RB5_flag
   129   0016C7  01                 	db	1
   130                           
   131                           ;initializer for _RB4_flag
   132   0016C8  01                 	db	1
   133                           
   134                           ;initializer for _timer0_counter_obj
   135   0016C9  30                 	db	low _Timer0_App_ISR
   136   0016CA  17                 	db	high _Timer0_App_ISR
   137   0016CB  01                 	db	1
   138   0016CC  00                 	db	0
   139   0016CD  0000               	dw	0
   140   0016CF  09                 	db	9
   141                           
   142                           ;initializer for _led_2
   143   0016D0  0A                 	db	10
   144                           
   145                           ;initializer for _led_1
   146   0016D1  02                 	db	2
   147                           
   148                           	psect	smallconst
   149   001000                     __psmallconst:
   150                           	callstack 0
   151   001000  00                 	db	0
   152   001001                     _keypad_valus:
   153                           	callstack 0
   154   001001  37                 	db	55
   155   001002  38                 	db	56
   156   001003  39                 	db	57
   157   001004  2F                 	db	47
   158   001005  34                 	db	52
   159   001006  35                 	db	53
   160   001007  36                 	db	54
   161   001008  2A                 	db	42
   162   001009  31                 	db	49
   163   00100A  32                 	db	50
   164   00100B  33                 	db	51
   165   00100C  2D                 	db	45
   166   00100D  23                 	db	35
   167   00100E  30                 	db	48
   168   00100F  3D                 	db	61
   169   001010  2B                 	db	43
   170   001011                     __end_of_keypad_valus:
   171                           	callstack 0
   172   000000                     _TMR1L	set	4046
   173   000000                     _TMR1H	set	4047
   174   000000                     _INTCON2bits	set	4081
   175   000000                     _EECON2	set	4007
   176   000000                     _ADCON1bits	set	4033
   177   000000                     _ADRESL	set	4035
   178   000000                     _ADRESH	set	4036
   179   000000                     _RCONbits	set	4048
   180   000000                     _TRISD	set	3989
   181   000000                     _TRISC	set	3988
   182   000000                     _TRISB	set	3987
   183   000000                     _TRISE	set	3990
   184   001011                     STR_1:
   185   001011  25                 	db	37
   186   001012  69                 	db	105	;'i'
   187   001013  00                 	db	0
   188   001014  00                 	db	0	; dummy byte at the end
   189   000000                     
   190                           	psect	nvCOMRAM
   191   000079                     __pnvCOMRAM:
   192                           	callstack 0
   193   000079                     _ret:
   194                           	callstack 0
   195   000079                     	ds	1
   196   000000                     _PIE1bits	set	3997
   197   000000                     _ADCON2bits	set	4032
   198   000000                     _ADCON0bits	set	4034
   199   000000                     _PORTE	set	3972
   200   000000                     _PORTD	set	3971
   201   000000                     _PORTC	set	3970
   202   000000                     _PORTB	set	3969
   203   000000                     _PORTA	set	3968
   204   000000                     _LATA	set	3977
   205   000000                     _TRISA	set	3986
   206   000000                     _EECON1bits	set	4006
   207   000000                     _EEDATA	set	4008
   208   000000                     _EEADR	set	4009
   209   000000                     _IPR1bits	set	3999
   210   000000                     _PIR1bits	set	3998
   211   000000                     _T0CONbits	set	4053
   212   000000                     _INTCON3bits	set	4080
   213   000000                     _INTCONbits	set	4082
   214   000000                     _T1CONbits	set	4045
   215   000000                     _EEADRH	set	4010
   216   000000                     _LATE	set	3981
   217   000000                     _LATD	set	3980
   218   000000                     _LATC	set	3979
   219   000000                     _LATB	set	3978
   220   000000                     _TMR0H	set	4055
   221   000000                     _TMR0L	set	4054
   222                           
   223                           ; #config settings
   224                           
   225                           	psect	cinit
   226   001612                     __pcinit:
   227                           	callstack 0
   228   001612                     start_initialization:
   229                           	callstack 0
   230   001612                     __initialization:
   231                           	callstack 0
   232                           
   233                           ; Initialize objects allocated to COMRAM (44 bytes)
   234                           ; load TBLPTR registers with __pidataCOMRAM
   235   001612  0EA6               	movlw	low __pidataCOMRAM
   236   001614  6EF6               	movwf	tblptrl,c
   237   001616  0E16               	movlw	high __pidataCOMRAM
   238   001618  6EF7               	movwf	tblptrh,c
   239   00161A  0E00               	movlw	low (__pidataCOMRAM shr (0+16))
   240   00161C  6EF8               	movwf	tblptru,c
   241   00161E  EE00  F038         	lfsr	0,__pdataCOMRAM
   242   001622  EE10 F02C          	lfsr	1,44
   243   001626                     copy_data0:
   244   001626  0009               	tblrd		*+
   245   001628  CFF5 FFEE          	movff	tablat,postinc0
   246   00162C  50E5               	movf	postdec1,w,c
   247   00162E  50E1               	movf	fsr1l,w,c
   248   001630  E1FA               	bnz	copy_data0
   249                           
   250                           ; Clear objects allocated to COMRAM (55 bytes)
   251   001632  EE00  F001         	lfsr	0,__pbssCOMRAM
   252   001636  0E37               	movlw	55
   253   001638                     clear_0:
   254   001638  6AEE               	clrf	postinc0,c
   255   00163A  06E8               	decf	wreg,f,c
   256   00163C  E1FD               	bnz	clear_0
   257   00163E                     end_of_initialization:
   258                           	callstack 0
   259   00163E                     __end_of__initialization:
   260                           	callstack 0
   261   00163E  907A               	bcf	int$flags,0,c	;clear compiler interrupt flag (level 1)
   262   001640  927A               	bcf	int$flags,1,c	;clear compiler interrupt flag (level 2)
   263   001642  0100               	movlb	0
   264   001644  EF83  F00A         	goto	_main	;jump to C main() function
   265                           
   266                           	psect	bssCOMRAM
   267   000001                     __pbssCOMRAM:
   268                           	callstack 0
   269   000001                     	ds	11
   270   00000C                     	ds	6
   271   000012                     	ds	4
   272   000016                     _timer1_preload:
   273                           	callstack 0
   274   000016                     	ds	2
   275   000018                     _Timer1_InterruptHandler:
   276                           	callstack 0
   277   000018                     	ds	2
   278   00001A                     _timer0_preload:
   279                           	callstack 0
   280   00001A                     	ds	2
   281   00001C                     _Timer0_InterruptHandler:
   282                           	callstack 0
   283   00001C                     	ds	2
   284   00001E                     _RB7_InterruptHandler_High:
   285                           	callstack 0
   286   00001E                     	ds	2
   287   000020                     _RB7_InterruptHandler_Low:
   288                           	callstack 0
   289   000020                     	ds	2
   290   000022                     _RB6_InterruptHandler_High:
   291                           	callstack 0
   292   000022                     	ds	2
   293   000024                     _RB6_InterruptHandler_Low:
   294                           	callstack 0
   295   000024                     	ds	2
   296   000026                     _RB5_InterruptHandler_High:
   297                           	callstack 0
   298   000026                     	ds	2
   299   000028                     _RB5_InterruptHandler_Low:
   300                           	callstack 0
   301   000028                     	ds	2
   302   00002A                     _RB4_InterruptHandler_High:
   303                           	callstack 0
   304   00002A                     	ds	2
   305   00002C                     _RB4_InterruptHandler_Low:
   306                           	callstack 0
   307   00002C                     	ds	2
   308   00002E                     _INT2_InterruptHandler:
   309                           	callstack 0
   310   00002E                     	ds	2
   311   000030                     _INT1_InterruptHandler:
   312                           	callstack 0
   313   000030                     	ds	2
   314   000032                     _INT0_InterruptHandler:
   315                           	callstack 0
   316   000032                     	ds	2
   317   000034                     _ADC_InterruptHandler:
   318                           	callstack 0
   319   000034                     	ds	2
   320   000036                     _freq:
   321                           	callstack 0
   322   000036                     	ds	2
   323                           
   324                           	psect	dataCOMRAM
   325   000038                     __pdataCOMRAM:
   326                           	callstack 0
   327   000038                     _port_registers:
   328                           	callstack 0
   329   000038                     	ds	10
   330   000042                     _lat_registers:
   331                           	callstack 0
   332   000042                     	ds	10
   333   00004C                     _tris_registers:
   334                           	callstack 0
   335   00004C                     	ds	10
   336   000056                     Timer0_Mode_Select@F2936:
   337                           	callstack 0
   338   000056                     	ds	1
   339   000057                     _RB7_flag:
   340                           	callstack 0
   341   000057                     	ds	1
   342   000058                     _RB6_flag:
   343                           	callstack 0
   344   000058                     	ds	1
   345   000059                     _RB5_flag:
   346                           	callstack 0
   347   000059                     	ds	1
   348   00005A                     _RB4_flag:
   349                           	callstack 0
   350   00005A                     	ds	1
   351   00005B                     _timer0_counter_obj:
   352                           	callstack 0
   353   00005B                     	ds	7
   354   000062                     _led_2:
   355                           	callstack 0
   356   000062                     	ds	1
   357   000063                     _led_1:
   358                           	callstack 0
   359   000063                     	ds	1
   360                           
   361                           	psect	cstackBANK0
   362   000080                     __pcstackBANK0:
   363                           	callstack 0
   364   000080                     ecu_led_initialize@ret:
   365                           	callstack 0
   366                           
   367                           ; 1 bytes @ 0x0
   368   000080                     	ds	1
   369   000081                     ??_main:
   370                           
   371                           ; 1 bytes @ 0x1
   372   000081                     	ds	2
   373                           
   374                           	psect	cstackCOMRAM
   375   000064                     __pcstackCOMRAM:
   376                           	callstack 0
   377   000064                     i2Timer0_Preload_Config@preload_value:
   378                           	callstack 0
   379                           
   380                           ; 2 bytes @ 0x0
   381   000064                     	ds	2
   382   000066                     ??_InterruptManagerHigh:
   383   000066                     
   384                           ; 1 bytes @ 0x2
   385   000066                     	ds	2
   386   000068                     ??_InterruptManagerLow:
   387                           
   388                           ; 1 bytes @ 0x4
   389   000068                     	ds	1
   390   000069                     gpio_pin_direction_initialize@_pin_config:
   391                           	callstack 0
   392   000069                     gpio_pin_write_logic@_pin_config:
   393                           	callstack 0
   394   000069                     mcal_Timer0_Read_Value@_timer0_config:
   395                           	callstack 0
   396   000069                     Timer0_Register_Size_Config@_timer0_config:
   397                           	callstack 0
   398   000069                     Timer0_Prescaler_Config@_timer0_config:
   399                           	callstack 0
   400   000069                     Timer0_Preload_Config@preload_value:
   401                           	callstack 0
   402                           
   403                           ; 2 bytes @ 0x5
   404   000069                     	ds	2
   405   00006B                     ??_gpio_pin_direction_initialize:
   406   00006B                     ??_Timer0_Prescaler_Config:
   407   00006B                     gpio_pin_write_logic@logic:
   408                           	callstack 0
   409   00006B                     mcal_Timer0_Write_Value@_timer0_config:
   410                           	callstack 0
   411   00006B                     mcal_Timer0_Read_Value@value:
   412                           	callstack 0
   413                           
   414                           ; 2 bytes @ 0x7
   415   00006B                     	ds	1
   416   00006C                     ??_gpio_pin_write_logic:
   417                           
   418                           ; 1 bytes @ 0x8
   419   00006C                     	ds	1
   420   00006D                     ??_mcal_Timer0_Read_Value:
   421   00006D                     mcal_Timer0_Write_Value@value:
   422                           	callstack 0
   423                           
   424                           ; 2 bytes @ 0x9
   425   00006D                     	ds	2
   426   00006F                     mcal_Timer0_Write_Value@ret:
   427                           	callstack 0
   428   00006F                     mcal_Timer0_Read_Value@l_tmroh:
   429                           	callstack 0
   430                           
   431                           ; 1 bytes @ 0xB
   432   00006F                     	ds	1
   433   000070                     mcal_Timer0_Read_Value@ret:
   434                           	callstack 0
   435                           
   436                           ; 1 bytes @ 0xC
   437   000070                     	ds	1
   438   000071                     gpio_pin_direction_initialize@ret:
   439                           	callstack 0
   440   000071                     mcal_Timer0_Read_Value@l_tmrol:
   441                           	callstack 0
   442                           
   443                           ; 1 bytes @ 0xD
   444   000071                     	ds	1
   445   000072                     gpio_pin_write_logic@ret:
   446                           	callstack 0
   447   000072                     Timer0_Mode_Select@_timer0_config:
   448                           	callstack 0
   449                           
   450                           ; 2 bytes @ 0xE
   451   000072                     	ds	1
   452   000073                     gpio_pin_initialize@_pin_config:
   453                           	callstack 0
   454                           
   455                           ; 2 bytes @ 0xF
   456   000073                     	ds	1
   457   000074                     Timer0_Mode_Select@_T0CKI_config:
   458                           	callstack 0
   459                           
   460                           ; 1 bytes @ 0x10
   461   000074                     	ds	1
   462   000075                     ??_gpio_pin_initialize:
   463   000075                     mcal_Timer0_Init@_timer0_config:
   464                           	callstack 0
   465                           
   466                           ; 2 bytes @ 0x11
   467   000075                     	ds	1
   468   000076                     gpio_pin_initialize@ret:
   469                           	callstack 0
   470                           
   471                           ; 1 bytes @ 0x12
   472   000076                     	ds	1
   473   000077                     ecu_led_initialize@_led_config:
   474                           	callstack 0
   475                           
   476                           ; 2 bytes @ 0x13
   477   000077                     	ds	1
   478   000078                     mcal_Timer0_Init@ret:
   479                           	callstack 0
   480                           
   481                           ; 1 bytes @ 0x14
   482   000078                     	ds	1
   483   000079                     
   484                           ; 1 bytes @ 0x15
   485 ;;
   486 ;;Main: autosize = 0, tempsize = 2, incstack = 0, save=0
   487 ;;
   488 ;; *************** function _main *****************
   489 ;; Defined at:
   490 ;;		line 27 in file "application.c"
   491 ;; Parameters:    Size  Location     Type
   492 ;;		None
   493 ;; Auto vars:     Size  Location     Type
   494 ;;		None
   495 ;; Return value:  Size  Location     Type
   496 ;;                  2  997[None  ] int 
   497 ;; Registers used:
   498 ;;		wreg, fsr2l, fsr2h, status,2, status,0, prodl, prodh, cstack
   499 ;; Tracked objects:
   500 ;;		On entry : 0/0
   501 ;;		On exit  : 0/0
   502 ;;		Unchanged: 0/0
   503 ;; Data sizes:     COMRAM   BANK0   BANK1   BANK2   BANK3   BANK4   BANK5   BANK6   BANK7   BANK8   BANK9  BANK10  BANK1
      +1  BANK12  BANK13  BANK14  BANK15
   504 ;;      Params:         0       0       0       0       0       0       0       0       0       0       0       0       
      +0       0       0       0       0
   505 ;;      Locals:         0       0       0       0       0       0       0       0       0       0       0       0       
      +0       0       0       0       0
   506 ;;      Temps:          0       2       0       0       0       0       0       0       0       0       0       0       
      +0       0       0       0       0
   507 ;;      Totals:         0       2       0       0       0       0       0       0       0       0       0       0       
      +0       0       0       0       0
   508 ;;Total ram usage:        2 bytes
   509 ;; Hardware stack levels required when called: 10
   510 ;; This function calls:
   511 ;;		_application_initialize
   512 ;;		_mcal_Timer0_Read_Value
   513 ;;		_mcal_Timer0_Write_Value
   514 ;; This function is called by:
   515 ;;		Startup code after reset
   516 ;; This function uses a non-reentrant model
   517 ;;
   518                           
   519                           	psect	text0
   520   001506                     __ptext0:
   521                           	callstack 0
   522   001506                     _main:
   523                           	callstack 21
   524   001506                     
   525                           ;application.c: 29:     application_initialize();
   526   001506  EC76  F00B         	call	_application_initialize	;wreg free
   527   00150A                     l5042:
   528                           
   529                           ;application.c: 32:     {;application.c: 33:         ret = mcal_Timer0_Read_Value(&timer
      +                          0_counter_obj, &freq);
   530   00150A  0E5B               	movlw	low _timer0_counter_obj
   531   00150C  6E69               	movwf	mcal_Timer0_Read_Value@_timer0_config^0,c
   532   00150E  0E00               	movlw	high _timer0_counter_obj
   533   001510  6E6A               	movwf	(mcal_Timer0_Read_Value@_timer0_config+1)^0,c
   534   001512  0E36               	movlw	low _freq
   535   001514  6E6B               	movwf	mcal_Timer0_Read_Value@value^0,c
   536   001516  0E00               	movlw	high _freq
   537   001518  6E6C               	movwf	(mcal_Timer0_Read_Value@value+1)^0,c
   538   00151A  ECAC  F00A         	call	_mcal_Timer0_Read_Value	;wreg free
   539   00151E  6E79               	movwf	_ret^0,c
   540   001520                     
   541                           ;application.c: 34:         ret = mcal_Timer0_Write_Value(&timer0_counter_obj, 0);
   542   001520  0E5B               	movlw	low _timer0_counter_obj
   543   001522  6E6B               	movwf	mcal_Timer0_Write_Value@_timer0_config^0,c
   544   001524  0E00               	movlw	high _timer0_counter_obj
   545   001526  6E6C               	movwf	(mcal_Timer0_Write_Value@_timer0_config+1)^0,c
   546   001528  0E00               	movlw	0
   547   00152A  6E6E               	movwf	(mcal_Timer0_Write_Value@value+1)^0,c
   548   00152C  0E00               	movlw	0
   549   00152E  6E6D               	movwf	mcal_Timer0_Write_Value@value^0,c
   550   001530  EC3C  F00B         	call	_mcal_Timer0_Write_Value	;wreg free
   551   001534  6E79               	movwf	_ret^0,c
   552   001536                     
   553                           ;application.c: 35:         _delay((unsigned long)((1000)*(4000000UL/4000.0)));
   554   001536  0E06               	movlw	6
   555   001538  0100               	movlb	0	; () banked
   556   00153A  6F82               	movwf	(??_main+1)& (0+255),b
   557   00153C  0E13               	movlw	19
   558   00153E  6F81               	movwf	??_main& (0+255),b
   559   001540  0EAD               	movlw	173
   560   001542                     u3417:
   561   001542  2EE8               	decfsz	wreg,f,c
   562   001544  D7FE               	bra	u3417
   563   001546  2F81               	decfsz	??_main& (0+255),f,b
   564   001548  D7FC               	bra	u3417
   565   00154A  2F82               	decfsz	(??_main+1)& (0+255),f,b
   566   00154C  D7FA               	bra	u3417
   567   00154E  D000               	nop2	
   568   001550  EF85  F00A         	goto	l5042
   569   001554  EF23  F000         	goto	start
   570   001558                     __end_of_main:
   571                           	callstack 0
   572                           
   573 ;; *************** function _mcal_Timer0_Write_Value *****************
   574 ;; Defined at:
   575 ;;		line 98 in file "MCAL_Layer/Timer0/mcal_timer0.c"
   576 ;; Parameters:    Size  Location     Type
   577 ;;  _timer0_conf    2    7[COMRAM] PTR const struct .
   578 ;;		 -> timer0_counter_obj(7), 
   579 ;;  value           2    9[COMRAM] unsigned short 
   580 ;; Auto vars:     Size  Location     Type
   581 ;;  ret             1   11[COMRAM] unsigned char 
   582 ;; Return value:  Size  Location     Type
   583 ;;                  1    wreg      unsigned char 
   584 ;; Registers used:
   585 ;;		wreg, status,2, status,0, cstack
   586 ;; Tracked objects:
   587 ;;		On entry : 0/0
   588 ;;		On exit  : 0/0
   589 ;;		Unchanged: 0/0
   590 ;; Data sizes:     COMRAM   BANK0   BANK1   BANK2   BANK3   BANK4   BANK5   BANK6   BANK7   BANK8   BANK9  BANK10  BANK1
      +1  BANK12  BANK13  BANK14  BANK15
   591 ;;      Params:         4       0       0       0       0       0       0       0       0       0       0       0       
      +0       0       0       0       0
   592 ;;      Locals:         1       0       0       0       0       0       0       0       0       0       0       0       
      +0       0       0       0       0
   593 ;;      Temps:          0       0       0       0       0       0       0       0       0       0       0       0       
      +0       0       0       0       0
   594 ;;      Totals:         5       0       0       0       0       0       0       0       0       0       0       0       
      +0       0       0       0       0
   595 ;;Total ram usage:        5 bytes
   596 ;; Hardware stack levels used: 1
   597 ;; Hardware stack levels required when called: 6
   598 ;; This function calls:
   599 ;;		_Timer0_Preload_Config
   600 ;; This function is called by:
   601 ;;		_main
   602 ;; This function uses a non-reentrant model
   603 ;;
   604                           
   605                           	psect	text1
   606   001678                     __ptext1:
   607                           	callstack 0
   608   001678                     _mcal_Timer0_Write_Value:
   609                           	callstack 24
   610   001678                     
   611                           ;MCAL_Layer/Timer0/mcal_timer0.c: 98: Std_ReturnType mcal_Timer0_Write_Value(const timer
      +                          0_config_t* _timer0_config, uint16 value);MCAL_Layer/Timer0/mcal_timer0.c: 99: {;MCAL_La
      +                          yer/Timer0/mcal_timer0.c: 100:     Std_ReturnType ret = (Std_ReturnType)0x01;
   612   001678  0E01               	movlw	1
   613   00167A  6E6F               	movwf	mcal_Timer0_Write_Value@ret^0,c
   614   00167C                     
   615                           ;MCAL_Layer/Timer0/mcal_timer0.c: 102:     if(((void*)0) == _timer0_config)
   616   00167C  506B               	movf	mcal_Timer0_Write_Value@_timer0_config^0,w,c
   617   00167E  106C               	iorwf	(mcal_Timer0_Write_Value@_timer0_config+1)^0,w,c
   618   001680  A4D8               	btfss	status,2,c
   619   001682  EF45  F00B         	goto	u2251
   620   001686  EF47  F00B         	goto	u2250
   621   00168A                     u2251:
   622   00168A  EF4B  F00B         	goto	l3784
   623   00168E                     u2250:
   624   00168E                     
   625                           ;MCAL_Layer/Timer0/mcal_timer0.c: 103:     {;MCAL_Layer/Timer0/mcal_timer0.c: 104:      
      +                             ret = (Std_ReturnType)0x00;
   626   00168E  0E00               	movlw	0
   627   001690  6E6F               	movwf	mcal_Timer0_Write_Value@ret^0,c
   628                           
   629                           ;MCAL_Layer/Timer0/mcal_timer0.c: 105:     }
   630   001692  EF51  F00B         	goto	l3786
   631   001696                     l3784:
   632                           
   633                           ;MCAL_Layer/Timer0/mcal_timer0.c: 108:     {;MCAL_Layer/Timer0/mcal_timer0.c: 109:      
      +                             Timer0_Preload_Config(value);
   634   001696  C06D  F069         	movff	mcal_Timer0_Write_Value@value,Timer0_Preload_Config@preload_value
   635   00169A  C06E  F06A         	movff	mcal_Timer0_Write_Value@value+1,Timer0_Preload_Config@preload_value+1
   636   00169E  EC80  F00B         	call	_Timer0_Preload_Config	;wreg free
   637   0016A2                     l3786:
   638                           
   639                           ;MCAL_Layer/Timer0/mcal_timer0.c: 112:     return ret;
   640   0016A2  506F               	movf	mcal_Timer0_Write_Value@ret^0,w,c
   641   0016A4  0012               	return		;funcret
   642   0016A6                     __end_of_mcal_Timer0_Write_Value:
   643                           	callstack 0
   644                           
   645 ;; *************** function _mcal_Timer0_Read_Value *****************
   646 ;; Defined at:
   647 ;;		line 115 in file "MCAL_Layer/Timer0/mcal_timer0.c"
   648 ;; Parameters:    Size  Location     Type
   649 ;;  _timer0_conf    2    5[COMRAM] PTR const struct .
   650 ;;		 -> timer0_counter_obj(7), 
   651 ;;  value           2    7[COMRAM] PTR unsigned short 
   652 ;;		 -> freq(2), 
   653 ;; Auto vars:     Size  Location     Type
   654 ;;  l_tmrol         1   13[COMRAM] unsigned char 
   655 ;;  ret             1   12[COMRAM] unsigned char 
   656 ;;  l_tmroh         1   11[COMRAM] unsigned char 
   657 ;; Return value:  Size  Location     Type
   658 ;;                  1    wreg      unsigned char 
   659 ;; Registers used:
   660 ;;		wreg, fsr2l, fsr2h, status,2, status,0
   661 ;; Tracked objects:
   662 ;;		On entry : 0/0
   663 ;;		On exit  : 0/0
   664 ;;		Unchanged: 0/0
   665 ;; Data sizes:     COMRAM   BANK0   BANK1   BANK2   BANK3   BANK4   BANK5   BANK6   BANK7   BANK8   BANK9  BANK10  BANK1
      +1  BANK12  BANK13  BANK14  BANK15
   666 ;;      Params:         4       0       0       0       0       0       0       0       0       0       0       0       
      +0       0       0       0       0
   667 ;;      Locals:         3       0       0       0       0       0       0       0       0       0       0       0       
      +0       0       0       0       0
   668 ;;      Temps:          2       0       0       0       0       0       0       0       0       0       0       0       
      +0       0       0       0       0
   669 ;;      Totals:         9       0       0       0       0       0       0       0       0       0       0       0       
      +0       0       0       0       0
   670 ;;Total ram usage:        9 bytes
   671 ;; Hardware stack levels used: 1
   672 ;; Hardware stack levels required when called: 5
   673 ;; This function calls:
   674 ;;		Nothing
   675 ;; This function is called by:
   676 ;;		_main
   677 ;; This function uses a non-reentrant model
   678 ;;
   679                           
   680                           	psect	text2
   681   001558                     __ptext2:
   682                           	callstack 0
   683   001558                     _mcal_Timer0_Read_Value:
   684                           	callstack 25
   685   001558                     
   686                           ;MCAL_Layer/Timer0/mcal_timer0.c: 115: Std_ReturnType mcal_Timer0_Read_Value(const timer
      +                          0_config_t* _timer0_config, uint16* value);MCAL_Layer/Timer0/mcal_timer0.c: 116: {;MCAL_
      +                          Layer/Timer0/mcal_timer0.c: 117:     Std_ReturnType ret = (Std_ReturnType)0x01;
   687   001558  0E01               	movlw	1
   688   00155A  6E70               	movwf	mcal_Timer0_Read_Value@ret^0,c
   689   00155C  0E00               	movlw	0
   690   00155E  6E6F               	movwf	mcal_Timer0_Read_Value@l_tmroh^0,c
   691   001560                     
   692                           ;MCAL_Layer/Timer0/mcal_timer0.c: 120:     if(((void*)0) == _timer0_config)
   693   001560  5069               	movf	mcal_Timer0_Read_Value@_timer0_config^0,w,c
   694   001562  106A               	iorwf	(mcal_Timer0_Read_Value@_timer0_config+1)^0,w,c
   695   001564  A4D8               	btfss	status,2,c
   696   001566  EFB7  F00A         	goto	u2261
   697   00156A  EFB9  F00A         	goto	u2260
   698   00156E                     u2261:
   699   00156E  EFBD  F00A         	goto	l937
   700   001572                     u2260:
   701   001572                     
   702                           ;MCAL_Layer/Timer0/mcal_timer0.c: 121:     {;MCAL_Layer/Timer0/mcal_timer0.c: 122:      
      +                             ret = (Std_ReturnType)0x00;
   703   001572  0E00               	movlw	0
   704   001574  6E70               	movwf	mcal_Timer0_Read_Value@ret^0,c
   705                           
   706                           ;MCAL_Layer/Timer0/mcal_timer0.c: 123:     }
   707   001576  EFCB  F00A         	goto	l3798
   708   00157A                     l937:
   709                           
   710                           ;MCAL_Layer/Timer0/mcal_timer0.c: 126:     {;MCAL_Layer/Timer0/mcal_timer0.c: 127:      
      +                            l_tmrol = TMR0L;
   711   00157A  CFD6 F071          	movff	4054,mcal_Timer0_Read_Value@l_tmrol	;volatile
   712   00157E  50D7               	movf	215,w,c	;volatile
   713   001580                     
   714                           ;MCAL_Layer/Timer0/mcal_timer0.c: 129:        *value = (uint8)((l_tmroh << 8) + l_tmrol)
      +                          ;
   715   001580  5071               	movf	mcal_Timer0_Read_Value@l_tmrol^0,w,c
   716   001582  6E6D               	movwf	??_mcal_Timer0_Read_Value^0,c
   717   001584  6A6E               	clrf	(??_mcal_Timer0_Read_Value+1)^0,c
   718   001586  C06B  FFD9         	movff	mcal_Timer0_Read_Value@value,fsr2l
   719   00158A  C06C  FFDA         	movff	mcal_Timer0_Read_Value@value+1,fsr2h
   720   00158E  C06D  FFDE         	movff	??_mcal_Timer0_Read_Value,postinc2
   721   001592  C06E  FFDD         	movff	??_mcal_Timer0_Read_Value+1,postdec2
   722   001596                     l3798:
   723                           
   724                           ;MCAL_Layer/Timer0/mcal_timer0.c: 132:     return ret;
   725   001596  5070               	movf	mcal_Timer0_Read_Value@ret^0,w,c
   726   001598  0012               	return		;funcret
   727   00159A                     __end_of_mcal_Timer0_Read_Value:
   728                           	callstack 0
   729                           
   730 ;; *************** function _application_initialize *****************
   731 ;; Defined at:
   732 ;;		line 41 in file "application.c"
   733 ;; Parameters:    Size  Location     Type
   734 ;;		None
   735 ;; Auto vars:     Size  Location     Type
   736 ;;		None
   737 ;; Return value:  Size  Location     Type
   738 ;;                  1    wreg      void 
   739 ;; Registers used:
   740 ;;		wreg, fsr2l, fsr2h, status,2, status,0, prodl, prodh, cstack
   741 ;; Tracked objects:
   742 ;;		On entry : 0/0
   743 ;;		On exit  : 0/0
   744 ;;		Unchanged: 0/0
   745 ;; Data sizes:     COMRAM   BANK0   BANK1   BANK2   BANK3   BANK4   BANK5   BANK6   BANK7   BANK8   BANK9  BANK10  BANK1
      +1  BANK12  BANK13  BANK14  BANK15
   746 ;;      Params:         0       0       0       0       0       0       0       0       0       0       0       0       
      +0       0       0       0       0
   747 ;;      Locals:         0       0       0       0       0       0       0       0       0       0       0       0       
      +0       0       0       0       0
   748 ;;      Temps:          0       0       0       0       0       0       0       0       0       0       0       0       
      +0       0       0       0       0
   749 ;;      Totals:         0       0       0       0       0       0       0       0       0       0       0       0       
      +0       0       0       0       0
   750 ;;Total ram usage:        0 bytes
   751 ;; Hardware stack levels used: 1
   752 ;; Hardware stack levels required when called: 9
   753 ;; This function calls:
   754 ;;		_ecu_layer_initialize
   755 ;;		_mcal_Timer0_Init
   756 ;; This function is called by:
   757 ;;		_main
   758 ;; This function uses a non-reentrant model
   759 ;;
   760                           
   761                           	psect	text3
   762   0016EC                     __ptext3:
   763                           	callstack 0
   764   0016EC                     _application_initialize:
   765                           	callstack 21
   766   0016EC                     
   767                           ;application.c: 43:     ecu_layer_initialize();
   768   0016EC  EC69  F00B         	call	_ecu_layer_initialize	;wreg free
   769                           
   770                           ;application.c: 44:     ret = mcal_Timer0_Init(&timer0_counter_obj);
   771   0016F0  0E5B               	movlw	low _timer0_counter_obj
   772   0016F2  6E75               	movwf	mcal_Timer0_Init@_timer0_config^0,c
   773   0016F4  0E00               	movlw	high _timer0_counter_obj
   774   0016F6  6E76               	movwf	(mcal_Timer0_Init@_timer0_config+1)^0,c
   775   0016F8  EC43  F009         	call	_mcal_Timer0_Init	;wreg free
   776   0016FC  6E79               	movwf	_ret^0,c
   777   0016FE  0012               	return		;funcret
   778   001700                     __end_of_application_initialize:
   779                           	callstack 0
   780                           
   781 ;; *************** function _mcal_Timer0_Init *****************
   782 ;; Defined at:
   783 ;;		line 21 in file "MCAL_Layer/Timer0/mcal_timer0.c"
   784 ;; Parameters:    Size  Location     Type
   785 ;;  _timer0_conf    2   17[COMRAM] PTR const struct .
   786 ;;		 -> timer0_counter_obj(7), 
   787 ;; Auto vars:     Size  Location     Type
   788 ;;  ret             1   20[COMRAM] unsigned char 
   789 ;; Return value:  Size  Location     Type
   790 ;;                  1    wreg      unsigned char 
   791 ;; Registers used:
   792 ;;		wreg, fsr2l, fsr2h, status,2, status,0, prodl, prodh, cstack
   793 ;; Tracked objects:
   794 ;;		On entry : 0/0
   795 ;;		On exit  : 0/0
   796 ;;		Unchanged: 0/0
   797 ;; Data sizes:     COMRAM   BANK0   BANK1   BANK2   BANK3   BANK4   BANK5   BANK6   BANK7   BANK8   BANK9  BANK10  BANK1
      +1  BANK12  BANK13  BANK14  BANK15
   798 ;;      Params:         2       0       0       0       0       0       0       0       0       0       0       0       
      +0       0       0       0       0
   799 ;;      Locals:         1       0       0       0       0       0       0       0       0       0       0       0       
      +0       0       0       0       0
   800 ;;      Temps:          1       0       0       0       0       0       0       0       0       0       0       0       
      +0       0       0       0       0
   801 ;;      Totals:         4       0       0       0       0       0       0       0       0       0       0       0       
      +0       0       0       0       0
   802 ;;Total ram usage:        4 bytes
   803 ;; Hardware stack levels used: 1
   804 ;; Hardware stack levels required when called: 7
   805 ;; This function calls:
   806 ;;		_Timer0_Mode_Select
   807 ;;		_Timer0_Preload_Config
   808 ;;		_Timer0_Prescaler_Config
   809 ;;		_Timer0_Register_Size_Config
   810 ;; This function is called by:
   811 ;;		_application_initialize
   812 ;; This function uses a non-reentrant model
   813 ;;
   814                           
   815                           	psect	text4
   816   001286                     __ptext4:
   817                           	callstack 0
   818   001286                     _mcal_Timer0_Init:
   819                           	callstack 22
   820   001286                     
   821                           ;MCAL_Layer/Timer0/mcal_timer0.c: 21: Std_ReturnType mcal_Timer0_Init(const timer0_confi
      +                          g_t* _timer0_config);MCAL_Layer/Timer0/mcal_timer0.c: 22: {;MCAL_Layer/Timer0/mcal_timer
      +                          0.c: 23:     Std_ReturnType ret = (Std_ReturnType)0x01;
   822   001286  0E01               	movlw	1
   823   001288  6E78               	movwf	mcal_Timer0_Init@ret^0,c
   824   00128A                     
   825                           ;MCAL_Layer/Timer0/mcal_timer0.c: 25:     if(((void*)0) == _timer0_config)
   826   00128A  5075               	movf	mcal_Timer0_Init@_timer0_config^0,w,c
   827   00128C  1076               	iorwf	(mcal_Timer0_Init@_timer0_config+1)^0,w,c
   828   00128E  A4D8               	btfss	status,2,c
   829   001290  EF4C  F009         	goto	u2901
   830   001294  EF4E  F009         	goto	u2900
   831   001298                     u2901:
   832   001298  EF52  F009         	goto	l918
   833   00129C                     u2900:
   834   00129C                     
   835                           ;MCAL_Layer/Timer0/mcal_timer0.c: 26:     {;MCAL_Layer/Timer0/mcal_timer0.c: 27:        
      +                           ret = (Std_ReturnType)0x00;
   836   00129C  0E00               	movlw	0
   837   00129E  6E78               	movwf	mcal_Timer0_Init@ret^0,c
   838                           
   839                           ;MCAL_Layer/Timer0/mcal_timer0.c: 28:     }
   840   0012A0  EF9F  F009         	goto	l4484
   841   0012A4                     l918:
   842                           
   843                           ;MCAL_Layer/Timer0/mcal_timer0.c: 31:     {;MCAL_Layer/Timer0/mcal_timer0.c: 33:        
      +                           (T0CONbits.TMR0ON = 0);
   844   0012A4  9ED5               	bcf	213,7,c	;volatile
   845   0012A6                     
   846                           ;MCAL_Layer/Timer0/mcal_timer0.c: 35:         Timer0_Mode_Select(_timer0_config);
   847   0012A6  C075  F072         	movff	mcal_Timer0_Init@_timer0_config,Timer0_Mode_Select@_timer0_config
   848   0012AA  C076  F073         	movff	mcal_Timer0_Init@_timer0_config+1,Timer0_Mode_Select@_timer0_config+1
   849   0012AE  ECA1  F009         	call	_Timer0_Mode_Select	;wreg free
   850   0012B2                     
   851                           ;MCAL_Layer/Timer0/mcal_timer0.c: 37:         Timer0_Register_Size_Config(_timer0_config
      +                          );
   852   0012B2  C075  F069         	movff	mcal_Timer0_Init@_timer0_config,Timer0_Register_Size_Config@_timer0_config
   853   0012B6  C076  F06A         	movff	mcal_Timer0_Init@_timer0_config+1,Timer0_Register_Size_Config@_timer0_config+1
   854   0012BA  ECCD  F00A         	call	_Timer0_Register_Size_Config	;wreg free
   855   0012BE                     
   856                           ;MCAL_Layer/Timer0/mcal_timer0.c: 39:         Timer0_Prescaler_Config(_timer0_config);
   857   0012BE  C075  F069         	movff	mcal_Timer0_Init@_timer0_config,Timer0_Prescaler_Config@_timer0_config
   858   0012C2  C076  F06A         	movff	mcal_Timer0_Init@_timer0_config+1,Timer0_Prescaler_Config@_timer0_config+1
   859   0012C6  EC57  F00A         	call	_Timer0_Prescaler_Config	;wreg free
   860   0012CA                     
   861                           ;MCAL_Layer/Timer0/mcal_timer0.c: 41:         Timer0_Preload_Config(_timer0_config->time
      +                          r0_preload_val);
   862   0012CA  EE20 F004          	lfsr	2,4
   863   0012CE  5075               	movf	mcal_Timer0_Init@_timer0_config^0,w,c
   864   0012D0  26D9               	addwf	fsr2l,f,c
   865   0012D2  5076               	movf	(mcal_Timer0_Init@_timer0_config+1)^0,w,c
   866   0012D4  22DA               	addwfc	fsr2h,f,c
   867   0012D6  CFDE F069          	movff	postinc2,Timer0_Preload_Config@preload_value
   868   0012DA  CFDD F06A          	movff	postdec2,Timer0_Preload_Config@preload_value+1
   869   0012DE  EC80  F00B         	call	_Timer0_Preload_Config	;wreg free
   870   0012E2                     
   871                           ;MCAL_Layer/Timer0/mcal_timer0.c: 45:             Timer0_InterruptHandler = _timer0_conf
      +                          ig->Timer0_InterruptHandler;
   872   0012E2  C075  FFD9         	movff	mcal_Timer0_Init@_timer0_config,fsr2l
   873   0012E6  C076  FFDA         	movff	mcal_Timer0_Init@_timer0_config+1,fsr2h
   874   0012EA  CFDE F01C          	movff	postinc2,_Timer0_InterruptHandler
   875   0012EE  CFDD F01D          	movff	postdec2,_Timer0_InterruptHandler+1
   876   0012F2                     
   877                           ;MCAL_Layer/Timer0/mcal_timer0.c: 46:             (INTCONbits.TMR0IE = 1);
   878   0012F2  8AF2               	bsf	242,5,c	;volatile
   879   0012F4                     
   880                           ;MCAL_Layer/Timer0/mcal_timer0.c: 47:             (INTCONbits.TMR0IF = 0);
   881   0012F4  94F2               	bcf	242,2,c	;volatile
   882   0012F6                     
   883                           ;MCAL_Layer/Timer0/mcal_timer0.c: 50:                 (RCONbits.IPEN = 1);
   884   0012F6  8ED0               	bsf	208,7,c	;volatile
   885   0012F8                     
   886                           ;MCAL_Layer/Timer0/mcal_timer0.c: 51:                 if(INTERRUPT_PRIORITY_HIGH == _tim
      +                          er0_config->priority)
   887   0012F8  EE20 F002          	lfsr	2,2
   888   0012FC  5075               	movf	mcal_Timer0_Init@_timer0_config^0,w,c
   889   0012FE  26D9               	addwf	fsr2l,f,c
   890   001300  5076               	movf	(mcal_Timer0_Init@_timer0_config+1)^0,w,c
   891   001302  22DA               	addwfc	fsr2h,f,c
   892   001304  04DE               	decf	postinc2,w,c
   893   001306  A4D8               	btfss	status,2,c
   894   001308  EF88  F009         	goto	u2911
   895   00130C  EF8A  F009         	goto	u2910
   896   001310                     u2911:
   897   001310  EF8E  F009         	goto	l4480
   898   001314                     u2910:
   899   001314                     
   900                           ;MCAL_Layer/Timer0/mcal_timer0.c: 52:                 {;MCAL_Layer/Timer0/mcal_timer0.c:
      +                           53:                     (INTCONbits.GIEH = 1);
   901   001314  8EF2               	bsf	242,7,c	;volatile
   902                           
   903                           ;MCAL_Layer/Timer0/mcal_timer0.c: 54:                     (INTCON2bits.TMR0IP = 1);
   904   001316  84F1               	bsf	241,2,c	;volatile
   905                           
   906                           ;MCAL_Layer/Timer0/mcal_timer0.c: 55:                 }
   907   001318  EF9E  F009         	goto	l921
   908   00131C                     l4480:
   909   00131C  EE20 F002          	lfsr	2,2
   910   001320  5075               	movf	mcal_Timer0_Init@_timer0_config^0,w,c
   911   001322  26D9               	addwf	fsr2l,f,c
   912   001324  5076               	movf	(mcal_Timer0_Init@_timer0_config+1)^0,w,c
   913   001326  22DA               	addwfc	fsr2h,f,c
   914   001328  50DF               	movf	indf2,w,c
   915   00132A  A4D8               	btfss	status,2,c
   916   00132C  EF9A  F009         	goto	u2921
   917   001330  EF9C  F009         	goto	u2920
   918   001334                     u2921:
   919   001334  EF9E  F009         	goto	l921
   920   001338                     u2920:
   921   001338                     
   922                           ;MCAL_Layer/Timer0/mcal_timer0.c: 57:                 {;MCAL_Layer/Timer0/mcal_timer0.c:
      +                           58:                     (INTCONbits.GIEL = 1);
   923   001338  8CF2               	bsf	242,6,c	;volatile
   924                           
   925                           ;MCAL_Layer/Timer0/mcal_timer0.c: 59:                     (INTCON2bits.TMR0IP = 0);
   926   00133A  94F1               	bcf	241,2,c	;volatile
   927   00133C                     l921:
   928                           
   929                           ;MCAL_Layer/Timer0/mcal_timer0.c: 70:         (T0CONbits.TMR0ON = 1);
   930   00133C  8ED5               	bsf	213,7,c	;volatile
   931   00133E                     l4484:
   932                           
   933                           ;MCAL_Layer/Timer0/mcal_timer0.c: 73:     return ret;
   934   00133E  5078               	movf	mcal_Timer0_Init@ret^0,w,c
   935   001340  0012               	return		;funcret
   936   001342                     __end_of_mcal_Timer0_Init:
   937                           	callstack 0
   938                           
   939 ;; *************** function _Timer0_Register_Size_Config *****************
   940 ;; Defined at:
   941 ;;		line 166 in file "MCAL_Layer/Timer0/mcal_timer0.c"
   942 ;; Parameters:    Size  Location     Type
   943 ;;  _timer0_conf    2    5[COMRAM] PTR const struct .
   944 ;;		 -> timer0_counter_obj(7), 
   945 ;; Auto vars:     Size  Location     Type
   946 ;;		None
   947 ;; Return value:  Size  Location     Type
   948 ;;                  1    wreg      void 
   949 ;; Registers used:
   950 ;;		wreg, fsr2l, fsr2h, status,2, status,0
   951 ;; Tracked objects:
   952 ;;		On entry : 0/0
   953 ;;		On exit  : 0/0
   954 ;;		Unchanged: 0/0
   955 ;; Data sizes:     COMRAM   BANK0   BANK1   BANK2   BANK3   BANK4   BANK5   BANK6   BANK7   BANK8   BANK9  BANK10  BANK1
      +1  BANK12  BANK13  BANK14  BANK15
   956 ;;      Params:         2       0       0       0       0       0       0       0       0       0       0       0       
      +0       0       0       0       0
   957 ;;      Locals:         0       0       0       0       0       0       0       0       0       0       0       0       
      +0       0       0       0       0
   958 ;;      Temps:          0       0       0       0       0       0       0       0       0       0       0       0       
      +0       0       0       0       0
   959 ;;      Totals:         2       0       0       0       0       0       0       0       0       0       0       0       
      +0       0       0       0       0
   960 ;;Total ram usage:        2 bytes
   961 ;; Hardware stack levels used: 1
   962 ;; Hardware stack levels required when called: 5
   963 ;; This function calls:
   964 ;;		Nothing
   965 ;; This function is called by:
   966 ;;		_mcal_Timer0_Init
   967 ;; This function uses a non-reentrant model
   968 ;;
   969                           
   970                           	psect	text5
   971   00159A                     __ptext5:
   972                           	callstack 0
   973   00159A                     _Timer0_Register_Size_Config:
   974                           	callstack 23
   975   00159A                     
   976                           ;MCAL_Layer/Timer0/mcal_timer0.c: 166: static __attribute__((inline)) void Timer0_Regist
      +                          er_Size_Config(const timer0_config_t* _timer0_config);MCAL_Layer/Timer0/mcal_timer0.c: 1
      +                          67: {;MCAL_Layer/Timer0/mcal_timer0.c: 168:     if(1 == _timer0_config->timer0_reg_size)
   977   00159A  EE20 F006          	lfsr	2,6
   978   00159E  5069               	movf	Timer0_Register_Size_Config@_timer0_config^0,w,c
   979   0015A0  26D9               	addwf	fsr2l,f,c
   980   0015A2  506A               	movf	(Timer0_Register_Size_Config@_timer0_config+1)^0,w,c
   981   0015A4  22DA               	addwfc	fsr2h,f,c
   982   0015A6  A2DF               	btfss	indf2,1,c
   983   0015A8  EFD8  F00A         	goto	u2001
   984   0015AC  EFDA  F00A         	goto	u2000
   985   0015B0                     u2001:
   986   0015B0  EFDD  F00A         	goto	l3536
   987   0015B4                     u2000:
   988   0015B4                     
   989                           ;MCAL_Layer/Timer0/mcal_timer0.c: 169:     {;MCAL_Layer/Timer0/mcal_timer0.c: 170:      
      +                             (T0CONbits.T08BIT = 1);
   990   0015B4  8CD5               	bsf	213,6,c	;volatile
   991                           
   992                           ;MCAL_Layer/Timer0/mcal_timer0.c: 171:     }
   993   0015B6  EFEB  F00A         	goto	l959
   994   0015BA                     l3536:
   995   0015BA  EE20 F006          	lfsr	2,6
   996   0015BE  5069               	movf	Timer0_Register_Size_Config@_timer0_config^0,w,c
   997   0015C0  26D9               	addwf	fsr2l,f,c
   998   0015C2  506A               	movf	(Timer0_Register_Size_Config@_timer0_config+1)^0,w,c
   999   0015C4  22DA               	addwfc	fsr2h,f,c
  1000   0015C6  B2DF               	btfsc	indf2,1,c
  1001   0015C8  EFE8  F00A         	goto	u2011
  1002   0015CC  EFEA  F00A         	goto	u2010
  1003   0015D0                     u2011:
  1004   0015D0  EFEB  F00A         	goto	l959
  1005   0015D4                     u2010:
  1006   0015D4                     
  1007                           ;MCAL_Layer/Timer0/mcal_timer0.c: 173:     {;MCAL_Layer/Timer0/mcal_timer0.c: 174:      
      +                             (T0CONbits.T08BIT = 0);
  1008   0015D4  9CD5               	bcf	213,6,c	;volatile
  1009   0015D6                     l959:
  1010   0015D6  0012               	return		;funcret
  1011   0015D8                     __end_of_Timer0_Register_Size_Config:
  1012                           	callstack 0
  1013                           
  1014 ;; *************** function _Timer0_Prescaler_Config *****************
  1015 ;; Defined at:
  1016 ;;		line 179 in file "MCAL_Layer/Timer0/mcal_timer0.c"
  1017 ;; Parameters:    Size  Location     Type
  1018 ;;  _timer0_conf    2    5[COMRAM] PTR const struct .
  1019 ;;		 -> timer0_counter_obj(7), 
  1020 ;; Auto vars:     Size  Location     Type
  1021 ;;		None
  1022 ;; Return value:  Size  Location     Type
  1023 ;;                  1    wreg      void 
  1024 ;; Registers used:
  1025 ;;		wreg, fsr2l, fsr2h, status,2, status,0
  1026 ;; Tracked objects:
  1027 ;;		On entry : 0/0
  1028 ;;		On exit  : 0/0
  1029 ;;		Unchanged: 0/0
  1030 ;; Data sizes:     COMRAM   BANK0   BANK1   BANK2   BANK3   BANK4   BANK5   BANK6   BANK7   BANK8   BANK9  BANK10  BANK1
      +1  BANK12  BANK13  BANK14  BANK15
  1031 ;;      Params:         2       0       0       0       0       0       0       0       0       0       0       0       
      +0       0       0       0       0
  1032 ;;      Locals:         0       0       0       0       0       0       0       0       0       0       0       0       
      +0       0       0       0       0
  1033 ;;      Temps:          1       0       0       0       0       0       0       0       0       0       0       0       
      +0       0       0       0       0
  1034 ;;      Totals:         3       0       0       0       0       0       0       0       0       0       0       0       
      +0       0       0       0       0
  1035 ;;Total ram usage:        3 bytes
  1036 ;; Hardware stack levels used: 1
  1037 ;; Hardware stack levels required when called: 5
  1038 ;; This function calls:
  1039 ;;		Nothing
  1040 ;; This function is called by:
  1041 ;;		_mcal_Timer0_Init
  1042 ;; This function uses a non-reentrant model
  1043 ;;
  1044                           
  1045                           	psect	text6
  1046   0014AE                     __ptext6:
  1047                           	callstack 0
  1048   0014AE                     _Timer0_Prescaler_Config:
  1049                           	callstack 23
  1050   0014AE                     
  1051                           ;MCAL_Layer/Timer0/mcal_timer0.c: 179: static __attribute__((inline)) void Timer0_Presca
      +                          ler_Config(const timer0_config_t* _timer0_config);MCAL_Layer/Timer0/mcal_timer0.c: 180: 
      +                          {;MCAL_Layer/Timer0/mcal_timer0.c: 181:     if(0 == _timer0_config->timer0_prescaler_ena
      +                          ble)
  1052   0014AE  EE20 F006          	lfsr	2,6
  1053   0014B2  5069               	movf	Timer0_Prescaler_Config@_timer0_config^0,w,c
  1054   0014B4  26D9               	addwf	fsr2l,f,c
  1055   0014B6  506A               	movf	(Timer0_Prescaler_Config@_timer0_config+1)^0,w,c
  1056   0014B8  22DA               	addwfc	fsr2h,f,c
  1057   0014BA  B4DF               	btfsc	indf2,2,c
  1058   0014BC  EF62  F00A         	goto	u2021
  1059   0014C0  EF64  F00A         	goto	u2020
  1060   0014C4                     u2021:
  1061   0014C4  EF67  F00A         	goto	l3544
  1062   0014C8                     u2020:
  1063   0014C8                     
  1064                           ;MCAL_Layer/Timer0/mcal_timer0.c: 182:     {;MCAL_Layer/Timer0/mcal_timer0.c: 183:      
      +                             (T0CONbits.PSA = 1);
  1065   0014C8  86D5               	bsf	213,3,c	;volatile
  1066                           
  1067                           ;MCAL_Layer/Timer0/mcal_timer0.c: 184:     }
  1068   0014CA  EF82  F00A         	goto	l966
  1069   0014CE                     l3544:
  1070   0014CE  EE20 F006          	lfsr	2,6
  1071   0014D2  5069               	movf	Timer0_Prescaler_Config@_timer0_config^0,w,c
  1072   0014D4  26D9               	addwf	fsr2l,f,c
  1073   0014D6  506A               	movf	(Timer0_Prescaler_Config@_timer0_config+1)^0,w,c
  1074   0014D8  22DA               	addwfc	fsr2h,f,c
  1075   0014DA  A4DF               	btfss	indf2,2,c
  1076   0014DC  EF72  F00A         	goto	u2031
  1077   0014E0  EF74  F00A         	goto	u2030
  1078   0014E4                     u2031:
  1079   0014E4  EF82  F00A         	goto	l966
  1080   0014E8                     u2030:
  1081   0014E8                     
  1082                           ;MCAL_Layer/Timer0/mcal_timer0.c: 186:     {;MCAL_Layer/Timer0/mcal_timer0.c: 187:      
      +                             (T0CONbits.PSA = 0);
  1083   0014E8  96D5               	bcf	213,3,c	;volatile
  1084   0014EA                     
  1085                           ;MCAL_Layer/Timer0/mcal_timer0.c: 188:         (T0CONbits.T0PS = _timer0_config->prescal
      +                          er);
  1086   0014EA  EE20 F003          	lfsr	2,3
  1087   0014EE  5069               	movf	Timer0_Prescaler_Config@_timer0_config^0,w,c
  1088   0014F0  26D9               	addwf	fsr2l,f,c
  1089   0014F2  506A               	movf	(Timer0_Prescaler_Config@_timer0_config+1)^0,w,c
  1090   0014F4  22DA               	addwfc	fsr2h,f,c
  1091   0014F6  50DF               	movf	indf2,w,c
  1092   0014F8  6E6B               	movwf	??_Timer0_Prescaler_Config^0,c
  1093   0014FA  50D5               	movf	213,w,c	;volatile
  1094   0014FC  186B               	xorwf	??_Timer0_Prescaler_Config^0,w,c
  1095   0014FE  0BF8               	andlw	-8
  1096   001500  186B               	xorwf	??_Timer0_Prescaler_Config^0,w,c
  1097   001502  6ED5               	movwf	213,c	;volatile
  1098   001504                     l966:
  1099   001504  0012               	return		;funcret
  1100   001506                     __end_of_Timer0_Prescaler_Config:
  1101                           	callstack 0
  1102                           
  1103 ;; *************** function _Timer0_Preload_Config *****************
  1104 ;; Defined at:
  1105 ;;		line 193 in file "MCAL_Layer/Timer0/mcal_timer0.c"
  1106 ;; Parameters:    Size  Location     Type
  1107 ;;  preload_valu    2    5[COMRAM] unsigned short 
  1108 ;; Auto vars:     Size  Location     Type
  1109 ;;		None
  1110 ;; Return value:  Size  Location     Type
  1111 ;;                  1    wreg      void 
  1112 ;; Registers used:
  1113 ;;		wreg, status,2
  1114 ;; Tracked objects:
  1115 ;;		On entry : 0/0
  1116 ;;		On exit  : 0/0
  1117 ;;		Unchanged: 0/0
  1118 ;; Data sizes:     COMRAM   BANK0   BANK1   BANK2   BANK3   BANK4   BANK5   BANK6   BANK7   BANK8   BANK9  BANK10  BANK1
      +1  BANK12  BANK13  BANK14  BANK15
  1119 ;;      Params:         2       0       0       0       0       0       0       0       0       0       0       0       
      +0       0       0       0       0
  1120 ;;      Locals:         0       0       0       0       0       0       0       0       0       0       0       0       
      +0       0       0       0       0
  1121 ;;      Temps:          0       0       0       0       0       0       0       0       0       0       0       0       
      +0       0       0       0       0
  1122 ;;      Totals:         2       0       0       0       0       0       0       0       0       0       0       0       
      +0       0       0       0       0
  1123 ;;Total ram usage:        2 bytes
  1124 ;; Hardware stack levels used: 1
  1125 ;; Hardware stack levels required when called: 5
  1126 ;; This function calls:
  1127 ;;		Nothing
  1128 ;; This function is called by:
  1129 ;;		_mcal_Timer0_Init
  1130 ;;		_mcal_Timer0_Write_Value
  1131 ;; This function uses a non-reentrant model
  1132 ;;
  1133                           
  1134                           	psect	text7
  1135   001700                     __ptext7:
  1136                           	callstack 0
  1137   001700                     _Timer0_Preload_Config:
  1138                           	callstack 24
  1139   001700                     
  1140                           ;MCAL_Layer/Timer0/mcal_timer0.c: 193: static __attribute__((inline)) void Timer0_Preloa
      +                          d_Config(uint16 preload_value);MCAL_Layer/Timer0/mcal_timer0.c: 194: {;MCAL_Layer/Timer0
      +                          /mcal_timer0.c: 195:     TMR0H = (uint8)(preload_value >> 8);
  1141   001700  506A               	movf	(Timer0_Preload_Config@preload_value+1)^0,w,c
  1142   001702  6ED7               	movwf	215,c	;volatile
  1143   001704                     
  1144                           ;MCAL_Layer/Timer0/mcal_timer0.c: 196:     TMR0L = (uint8)(preload_value & 0xFF);
  1145   001704  C069  FFD6         	movff	Timer0_Preload_Config@preload_value,4054	;volatile
  1146   001708                     
  1147                           ;MCAL_Layer/Timer0/mcal_timer0.c: 197:     timer0_preload = preload_value;
  1148   001708  C069  F01A         	movff	Timer0_Preload_Config@preload_value,_timer0_preload
  1149   00170C  C06A  F01B         	movff	Timer0_Preload_Config@preload_value+1,_timer0_preload+1
  1150   001710  0012               	return		;funcret
  1151   001712                     __end_of_Timer0_Preload_Config:
  1152                           	callstack 0
  1153                           
  1154 ;; *************** function _Timer0_Mode_Select *****************
  1155 ;; Defined at:
  1156 ;;		line 135 in file "MCAL_Layer/Timer0/mcal_timer0.c"
  1157 ;; Parameters:    Size  Location     Type
  1158 ;;  _timer0_conf    2   14[COMRAM] PTR const struct .
  1159 ;;		 -> timer0_counter_obj(7), 
  1160 ;; Auto vars:     Size  Location     Type
  1161 ;;  _T0CKI_confi    1   16[COMRAM] struct .
  1162 ;; Return value:  Size  Location     Type
  1163 ;;                  1    wreg      void 
  1164 ;; Registers used:
  1165 ;;		wreg, fsr2l, fsr2h, status,2, status,0, prodl, prodh, cstack
  1166 ;; Tracked objects:
  1167 ;;		On entry : 0/0
  1168 ;;		On exit  : 0/0
  1169 ;;		Unchanged: 0/0
  1170 ;; Data sizes:     COMRAM   BANK0   BANK1   BANK2   BANK3   BANK4   BANK5   BANK6   BANK7   BANK8   BANK9  BANK10  BANK1
      +1  BANK12  BANK13  BANK14  BANK15
  1171 ;;      Params:         2       0       0       0       0       0       0       0       0       0       0       0       
      +0       0       0       0       0
  1172 ;;      Locals:         1       0       0       0       0       0       0       0       0       0       0       0       
      +0       0       0       0       0
  1173 ;;      Temps:          0       0       0       0       0       0       0       0       0       0       0       0       
      +0       0       0       0       0
  1174 ;;      Totals:         3       0       0       0       0       0       0       0       0       0       0       0       
      +0       0       0       0       0
  1175 ;;Total ram usage:        3 bytes
  1176 ;; Hardware stack levels used: 1
  1177 ;; Hardware stack levels required when called: 6
  1178 ;; This function calls:
  1179 ;;		_gpio_pin_direction_initialize
  1180 ;; This function is called by:
  1181 ;;		_mcal_Timer0_Init
  1182 ;; This function uses a non-reentrant model
  1183 ;;
  1184                           
  1185                           	psect	text8
  1186   001342                     __ptext8:
  1187                           	callstack 0
  1188   001342                     _Timer0_Mode_Select:
  1189                           	callstack 22
  1190   001342                     
  1191                           ;MCAL_Layer/Timer0/mcal_timer0.c: 135: static __attribute__((inline)) void Timer0_Mode_S
      +                          elect(const timer0_config_t* _timer0_config);MCAL_Layer/Timer0/mcal_timer0.c: 136: {;MCA
      +                          L_Layer/Timer0/mcal_timer0.c: 137:     if(0 == _timer0_config->timer0_mode)
  1192   001342  EE20 F006          	lfsr	2,6
  1193   001346  5072               	movf	Timer0_Mode_Select@_timer0_config^0,w,c
  1194   001348  26D9               	addwf	fsr2l,f,c
  1195   00134A  5073               	movf	(Timer0_Mode_Select@_timer0_config+1)^0,w,c
  1196   00134C  22DA               	addwfc	fsr2h,f,c
  1197   00134E  B0DF               	btfsc	indf2,0,c
  1198   001350  EFAC  F009         	goto	u2821
  1199   001354  EFAE  F009         	goto	u2820
  1200   001358                     u2821:
  1201   001358  EFB1  F009         	goto	l4364
  1202   00135C                     u2820:
  1203   00135C                     
  1204                           ;MCAL_Layer/Timer0/mcal_timer0.c: 138:     {;MCAL_Layer/Timer0/mcal_timer0.c: 139:      
      +                             (T0CONbits.T0CS = 0);
  1205   00135C  9AD5               	bcf	213,5,c	;volatile
  1206                           
  1207                           ;MCAL_Layer/Timer0/mcal_timer0.c: 140:     }
  1208   00135E  EFE5  F009         	goto	l952
  1209   001362                     l4364:
  1210   001362  EE20 F006          	lfsr	2,6
  1211   001366  5072               	movf	Timer0_Mode_Select@_timer0_config^0,w,c
  1212   001368  26D9               	addwf	fsr2l,f,c
  1213   00136A  5073               	movf	(Timer0_Mode_Select@_timer0_config+1)^0,w,c
  1214   00136C  22DA               	addwfc	fsr2h,f,c
  1215   00136E  A0DF               	btfss	indf2,0,c
  1216   001370  EFBC  F009         	goto	u2831
  1217   001374  EFBE  F009         	goto	u2830
  1218   001378                     u2831:
  1219   001378  EFE5  F009         	goto	l952
  1220   00137C                     u2830:
  1221   00137C                     
  1222                           ;MCAL_Layer/Timer0/mcal_timer0.c: 142:     {;MCAL_Layer/Timer0/mcal_timer0.c: 143:      
      +                             (T0CONbits.T0CS = 1);
  1223   00137C  8AD5               	bsf	213,5,c	;volatile
  1224   00137E                     
  1225                           ;MCAL_Layer/Timer0/mcal_timer0.c: 148:         if(1 == _timer0_config->timer0_counter_ed
      +                          ge)
  1226   00137E  EE20 F006          	lfsr	2,6
  1227   001382  5072               	movf	Timer0_Mode_Select@_timer0_config^0,w,c
  1228   001384  26D9               	addwf	fsr2l,f,c
  1229   001386  5073               	movf	(Timer0_Mode_Select@_timer0_config+1)^0,w,c
  1230   001388  22DA               	addwfc	fsr2h,f,c
  1231   00138A  A6DF               	btfss	indf2,3,c
  1232   00138C  EFCA  F009         	goto	u2841
  1233   001390  EFCC  F009         	goto	u2840
  1234   001394                     u2841:
  1235   001394  EFCF  F009         	goto	l4372
  1236   001398                     u2840:
  1237   001398                     
  1238                           ;MCAL_Layer/Timer0/mcal_timer0.c: 149:         {;MCAL_Layer/Timer0/mcal_timer0.c: 150:  
      +                                     (T0CONbits.T0SE = 0);
  1239   001398  98D5               	bcf	213,4,c	;volatile
  1240                           
  1241                           ;MCAL_Layer/Timer0/mcal_timer0.c: 151:         }
  1242   00139A  EFDD  F009         	goto	l946
  1243   00139E                     l4372:
  1244   00139E  EE20 F006          	lfsr	2,6
  1245   0013A2  5072               	movf	Timer0_Mode_Select@_timer0_config^0,w,c
  1246   0013A4  26D9               	addwf	fsr2l,f,c
  1247   0013A6  5073               	movf	(Timer0_Mode_Select@_timer0_config+1)^0,w,c
  1248   0013A8  22DA               	addwfc	fsr2h,f,c
  1249   0013AA  B6DF               	btfsc	indf2,3,c
  1250   0013AC  EFDA  F009         	goto	u2851
  1251   0013B0  EFDC  F009         	goto	u2850
  1252   0013B4                     u2851:
  1253   0013B4  EFDD  F009         	goto	l946
  1254   0013B8                     u2850:
  1255   0013B8                     
  1256                           ;MCAL_Layer/Timer0/mcal_timer0.c: 153:         {;MCAL_Layer/Timer0/mcal_timer0.c: 154:  
      +                                     (T0CONbits.T0SE = 1);
  1257   0013B8  88D5               	bsf	213,4,c	;volatile
  1258   0013BA                     l946:
  1259                           
  1260                           ;MCAL_Layer/Timer0/mcal_timer0.c: 159:         pin_config_t _T0CKI_config = {.port = POR
      +                          TA_INDEX, .pin = GPIO_PIN4,
  1261   0013BA  C056  F074         	movff	Timer0_Mode_Select@F2936,Timer0_Mode_Select@_T0CKI_config
  1262   0013BE                     
  1263                           ;MCAL_Layer/Timer0/mcal_timer0.c: 161:         gpio_pin_direction_initialize(&_T0CKI_con
      +                          fig);
  1264   0013BE  0E74               	movlw	low Timer0_Mode_Select@_T0CKI_config
  1265   0013C0  6E69               	movwf	gpio_pin_direction_initialize@_pin_config^0,c
  1266   0013C2  0E00               	movlw	high Timer0_Mode_Select@_T0CKI_config
  1267   0013C4  6E6A               	movwf	(gpio_pin_direction_initialize@_pin_config+1)^0,c
  1268   0013C6  EC0B  F008         	call	_gpio_pin_direction_initialize	;wreg free
  1269   0013CA                     l952:
  1270   0013CA  0012               	return		;funcret
  1271   0013CC                     __end_of_Timer0_Mode_Select:
  1272                           	callstack 0
  1273                           
  1274 ;; *************** function _ecu_layer_initialize *****************
  1275 ;; Defined at:
  1276 ;;		line 24 in file "ECU_Layer/ecu_layer_init.c"
  1277 ;; Parameters:    Size  Location     Type
  1278 ;;		None
  1279 ;; Auto vars:     Size  Location     Type
  1280 ;;  ret             1    0        unsigned char 
  1281 ;; Return value:  Size  Location     Type
  1282 ;;                  1    wreg      void 
  1283 ;; Registers used:
  1284 ;;		wreg, fsr2l, fsr2h, status,2, status,0, prodl, prodh, cstack
  1285 ;; Tracked objects:
  1286 ;;		On entry : 0/0
  1287 ;;		On exit  : 0/0
  1288 ;;		Unchanged: 0/0
  1289 ;; Data sizes:     COMRAM   BANK0   BANK1   BANK2   BANK3   BANK4   BANK5   BANK6   BANK7   BANK8   BANK9  BANK10  BANK1
      +1  BANK12  BANK13  BANK14  BANK15
  1290 ;;      Params:         0       0       0       0       0       0       0       0       0       0       0       0       
      +0       0       0       0       0
  1291 ;;      Locals:         0       0       0       0       0       0       0       0       0       0       0       0       
      +0       0       0       0       0
  1292 ;;      Temps:          0       0       0       0       0       0       0       0       0       0       0       0       
      +0       0       0       0       0
  1293 ;;      Totals:         0       0       0       0       0       0       0       0       0       0       0       0       
      +0       0       0       0       0
  1294 ;;Total ram usage:        0 bytes
  1295 ;; Hardware stack levels used: 1
  1296 ;; Hardware stack levels required when called: 8
  1297 ;; This function calls:
  1298 ;;		_ecu_led_initialize
  1299 ;; This function is called by:
  1300 ;;		_application_initialize
  1301 ;; This function uses a non-reentrant model
  1302 ;;
  1303                           
  1304                           	psect	text9
  1305   0016D2                     __ptext9:
  1306                           	callstack 0
  1307   0016D2                     _ecu_layer_initialize:
  1308                           	callstack 21
  1309   0016D2  0E63               	movlw	low _led_1
  1310   0016D4  6E77               	movwf	ecu_led_initialize@_led_config^0,c
  1311   0016D6  0E00               	movlw	high _led_1
  1312   0016D8  6E78               	movwf	(ecu_led_initialize@_led_config+1)^0,c
  1313   0016DA  EC24  F00B         	call	_ecu_led_initialize	;wreg free
  1314   0016DE  0E62               	movlw	low _led_2
  1315   0016E0  6E77               	movwf	ecu_led_initialize@_led_config^0,c
  1316   0016E2  0E00               	movlw	high _led_2
  1317   0016E4  6E78               	movwf	(ecu_led_initialize@_led_config+1)^0,c
  1318   0016E6  EC24  F00B         	call	_ecu_led_initialize	;wreg free
  1319   0016EA  0012               	return		;funcret
  1320   0016EC                     __end_of_ecu_layer_initialize:
  1321                           	callstack 0
  1322                           
  1323 ;; *************** function _ecu_led_initialize *****************
  1324 ;; Defined at:
  1325 ;;		line 15 in file "ECU_Layer/LED/ecu_led.c"
  1326 ;; Parameters:    Size  Location     Type
  1327 ;;  _led_config     2   19[COMRAM] PTR const struct .
  1328 ;;		 -> led_2(1), led_1(1), 
  1329 ;; Auto vars:     Size  Location     Type
  1330 ;;  ret             1    0[BANK0 ] unsigned char 
  1331 ;; Return value:  Size  Location     Type
  1332 ;;                  1    wreg      unsigned char 
  1333 ;; Registers used:
  1334 ;;		wreg, fsr2l, fsr2h, status,2, status,0, prodl, prodh, cstack
  1335 ;; Tracked objects:
  1336 ;;		On entry : 0/0
  1337 ;;		On exit  : 0/0
  1338 ;;		Unchanged: 0/0
  1339 ;; Data sizes:     COMRAM   BANK0   BANK1   BANK2   BANK3   BANK4   BANK5   BANK6   BANK7   BANK8   BANK9  BANK10  BANK1
      +1  BANK12  BANK13  BANK14  BANK15
  1340 ;;      Params:         2       0       0       0       0       0       0       0       0       0       0       0       
      +0       0       0       0       0
  1341 ;;      Locals:         0       1       0       0       0       0       0       0       0       0       0       0       
      +0       0       0       0       0
  1342 ;;      Temps:          0       0       0       0       0       0       0       0       0       0       0       0       
      +0       0       0       0       0
  1343 ;;      Totals:         2       1       0       0       0       0       0       0       0       0       0       0       
      +0       0       0       0       0
  1344 ;;Total ram usage:        3 bytes
  1345 ;; Hardware stack levels used: 1
  1346 ;; Hardware stack levels required when called: 7
  1347 ;; This function calls:
  1348 ;;		_gpio_pin_initialize
  1349 ;; This function is called by:
  1350 ;;		_ecu_layer_initialize
  1351 ;; This function uses a non-reentrant model
  1352 ;;
  1353                           
  1354                           	psect	text10
  1355   001648                     __ptext10:
  1356                           	callstack 0
  1357   001648                     _ecu_led_initialize:
  1358                           	callstack 21
  1359   001648                     
  1360                           ;ECU_Layer/LED/ecu_led.c: 19:     if(((void*)0) == _led_config)
  1361   001648  5077               	movf	ecu_led_initialize@_led_config^0,w,c
  1362   00164A  1078               	iorwf	(ecu_led_initialize@_led_config+1)^0,w,c
  1363   00164C  A4D8               	btfss	status,2,c
  1364   00164E  EF2B  F00B         	goto	u2811
  1365   001652  EF2D  F00B         	goto	u2810
  1366   001656                     u2811:
  1367   001656  EF32  F00B         	goto	l4354
  1368   00165A                     u2810:
  1369   00165A                     
  1370                           ;ECU_Layer/LED/ecu_led.c: 20:     {;ECU_Layer/LED/ecu_led.c: 21:         ret = (Std_Retu
      +                          rnType)0x00;
  1371   00165A  0E00               	movlw	0
  1372   00165C  0100               	movlb	0	; () banked
  1373   00165E  6F80               	movwf	ecu_led_initialize@ret& (0+255),b
  1374                           
  1375                           ;ECU_Layer/LED/ecu_led.c: 22:     }
  1376   001660  EF3A  F00B         	goto	l4356
  1377   001664                     l4354:
  1378                           
  1379                           ;ECU_Layer/LED/ecu_led.c: 25:     {;ECU_Layer/LED/ecu_led.c: 26:         ret = gpio_pin_
      +                          initialize(&_led_config->led_pin);
  1380   001664  C077  F073         	movff	ecu_led_initialize@_led_config,gpio_pin_initialize@_pin_config
  1381   001668  C078  F074         	movff	ecu_led_initialize@_led_config+1,gpio_pin_initialize@_pin_config+1
  1382   00166C  EC21  F00A         	call	_gpio_pin_initialize	;wreg free
  1383   001670  0100               	movlb	0	; () banked
  1384   001672  6F80               	movwf	ecu_led_initialize@ret& (0+255),b
  1385   001674                     l4356:
  1386                           
  1387                           ; BSR set to: 0
  1388                           ;ECU_Layer/LED/ecu_led.c: 29:     return ret;
  1389   001674  5180               	movf	ecu_led_initialize@ret& (0+255),w,b
  1390   001676                     
  1391                           ; BSR set to: 0
  1392   001676  0012               	return		;funcret
  1393   001678                     __end_of_ecu_led_initialize:
  1394                           	callstack 0
  1395                           
  1396 ;; *************** function _gpio_pin_initialize *****************
  1397 ;; Defined at:
  1398 ;;		line 161 in file "MCAL_Layer/GPIO/mcal_gpio.c"
  1399 ;; Parameters:    Size  Location     Type
  1400 ;;  _pin_config     2   15[COMRAM] PTR const struct .
  1401 ;;		 -> led_2(1), led_1(1), 
  1402 ;; Auto vars:     Size  Location     Type
  1403 ;;  ret             1   18[COMRAM] unsigned char 
  1404 ;; Return value:  Size  Location     Type
  1405 ;;                  1    wreg      unsigned char 
  1406 ;; Registers used:
  1407 ;;		wreg, fsr2l, fsr2h, status,2, status,0, prodl, prodh, cstack
  1408 ;; Tracked objects:
  1409 ;;		On entry : 0/0
  1410 ;;		On exit  : 0/0
  1411 ;;		Unchanged: 0/0
  1412 ;; Data sizes:     COMRAM   BANK0   BANK1   BANK2   BANK3   BANK4   BANK5   BANK6   BANK7   BANK8   BANK9  BANK10  BANK1
      +1  BANK12  BANK13  BANK14  BANK15
  1413 ;;      Params:         2       0       0       0       0       0       0       0       0       0       0       0       
      +0       0       0       0       0
  1414 ;;      Locals:         1       0       0       0       0       0       0       0       0       0       0       0       
      +0       0       0       0       0
  1415 ;;      Temps:          1       0       0       0       0       0       0       0       0       0       0       0       
      +0       0       0       0       0
  1416 ;;      Totals:         4       0       0       0       0       0       0       0       0       0       0       0       
      +0       0       0       0       0
  1417 ;;Total ram usage:        4 bytes
  1418 ;; Hardware stack levels used: 1
  1419 ;; Hardware stack levels required when called: 6
  1420 ;; This function calls:
  1421 ;;		_gpio_pin_direction_initialize
  1422 ;;		_gpio_pin_write_logic
  1423 ;; This function is called by:
  1424 ;;		_ecu_led_initialize
  1425 ;;		_ecu_7_segment_initialize
  1426 ;;		_ecu_dc_motor_initialize
  1427 ;;		_ecu_dc_motor_stop
  1428 ;;		_ecu_keypad_initialize
  1429 ;;		_ecu_lcd_4bits_initialize
  1430 ;;		_ecu_lcd_8bits_initialize
  1431 ;; This function uses a non-reentrant model
  1432 ;;
  1433                           
  1434                           	psect	text11
  1435   001442                     __ptext11:
  1436                           	callstack 0
  1437   001442                     _gpio_pin_initialize:
  1438                           	callstack 21
  1439   001442                     
  1440                           ;MCAL_Layer/GPIO/mcal_gpio.c: 165:     if(((void*)0) == _pin_config || _pin_config->pin 
      +                          > 7)
  1441   001442  5073               	movf	gpio_pin_initialize@_pin_config^0,w,c
  1442   001444  1074               	iorwf	(gpio_pin_initialize@_pin_config+1)^0,w,c
  1443   001446  B4D8               	btfsc	status,2,c
  1444   001448  EF28  F00A         	goto	u2791
  1445   00144C  EF2A  F00A         	goto	u2790
  1446   001450                     u2791:
  1447   001450  EF3B  F00A         	goto	l4340
  1448   001454                     u2790:
  1449   001454  C073  FFD9         	movff	gpio_pin_initialize@_pin_config,fsr2l
  1450   001458  C074  FFDA         	movff	gpio_pin_initialize@_pin_config+1,fsr2h
  1451   00145C  30DF               	rrcf	223,w,c
  1452   00145E  32E8               	rrcf	wreg,f,c
  1453   001460  32E8               	rrcf	wreg,f,c
  1454   001462  0B07               	andlw	7
  1455   001464  6E75               	movwf	??_gpio_pin_initialize^0,c
  1456   001466  0E07               	movlw	7
  1457   001468  6475               	cpfsgt	??_gpio_pin_initialize^0,c
  1458   00146A  EF39  F00A         	goto	u2801
  1459   00146E  EF3B  F00A         	goto	u2800
  1460   001472                     u2801:
  1461   001472  EF3F  F00A         	goto	l4342
  1462   001476                     u2800:
  1463   001476                     l4340:
  1464                           
  1465                           ;MCAL_Layer/GPIO/mcal_gpio.c: 166:     {;MCAL_Layer/GPIO/mcal_gpio.c: 167:         ret =
      +                           (Std_ReturnType)0x00;
  1466   001476  0E00               	movlw	0
  1467   001478  6E76               	movwf	gpio_pin_initialize@ret^0,c
  1468                           
  1469                           ;MCAL_Layer/GPIO/mcal_gpio.c: 168:     }
  1470   00147A  EF55  F00A         	goto	l4344
  1471   00147E                     l4342:
  1472                           
  1473                           ;MCAL_Layer/GPIO/mcal_gpio.c: 171:     {;MCAL_Layer/GPIO/mcal_gpio.c: 172:         ret =
      +                           gpio_pin_direction_initialize(_pin_config);
  1474   00147E  C073  F069         	movff	gpio_pin_initialize@_pin_config,gpio_pin_direction_initialize@_pin_config
  1475   001482  C074  F06A         	movff	gpio_pin_initialize@_pin_config+1,gpio_pin_direction_initialize@_pin_config+1
  1476   001486  EC0B  F008         	call	_gpio_pin_direction_initialize	;wreg free
  1477   00148A  6E76               	movwf	gpio_pin_initialize@ret^0,c
  1478                           
  1479                           ;MCAL_Layer/GPIO/mcal_gpio.c: 173:         ret = gpio_pin_write_logic(_pin_config, _pin_
      +                          config->logic);
  1480   00148C  C073  F069         	movff	gpio_pin_initialize@_pin_config,gpio_pin_write_logic@_pin_config
  1481   001490  C074  F06A         	movff	gpio_pin_initialize@_pin_config+1,gpio_pin_write_logic@_pin_config+1
  1482   001494  C073  FFD9         	movff	gpio_pin_initialize@_pin_config,fsr2l
  1483   001498  C074  FFDA         	movff	gpio_pin_initialize@_pin_config+1,fsr2h
  1484   00149C  0E00               	movlw	0
  1485   00149E  BEDF               	btfsc	indf2,7,c
  1486   0014A0  0E01               	movlw	1
  1487   0014A2  6E6B               	movwf	gpio_pin_write_logic@logic^0,c
  1488   0014A4  ECAD  F008         	call	_gpio_pin_write_logic	;wreg free
  1489   0014A8  6E76               	movwf	gpio_pin_initialize@ret^0,c
  1490   0014AA                     l4344:
  1491                           
  1492                           ;MCAL_Layer/GPIO/mcal_gpio.c: 176:     return ret;
  1493   0014AA  5076               	movf	gpio_pin_initialize@ret^0,w,c
  1494   0014AC  0012               	return		;funcret
  1495   0014AE                     __end_of_gpio_pin_initialize:
  1496                           	callstack 0
  1497                           
  1498 ;; *************** function _gpio_pin_write_logic *****************
  1499 ;; Defined at:
  1500 ;;		line 83 in file "MCAL_Layer/GPIO/mcal_gpio.c"
  1501 ;; Parameters:    Size  Location     Type
  1502 ;;  _pin_config     2    5[COMRAM] PTR const struct .
  1503 ;;		 -> led_2(1), led_1(1), 
  1504 ;;  logic           1    7[COMRAM] enum E2801
  1505 ;; Auto vars:     Size  Location     Type
  1506 ;;  ret             1   14[COMRAM] unsigned char 
  1507 ;; Return value:  Size  Location     Type
  1508 ;;                  1    wreg      unsigned char 
  1509 ;; Registers used:
  1510 ;;		wreg, fsr2l, fsr2h, status,2, status,0, prodl, prodh
  1511 ;; Tracked objects:
  1512 ;;		On entry : 0/0
  1513 ;;		On exit  : 0/0
  1514 ;;		Unchanged: 0/0
  1515 ;; Data sizes:     COMRAM   BANK0   BANK1   BANK2   BANK3   BANK4   BANK5   BANK6   BANK7   BANK8   BANK9  BANK10  BANK1
      +1  BANK12  BANK13  BANK14  BANK15
  1516 ;;      Params:         3       0       0       0       0       0       0       0       0       0       0       0       
      +0       0       0       0       0
  1517 ;;      Locals:         1       0       0       0       0       0       0       0       0       0       0       0       
      +0       0       0       0       0
  1518 ;;      Temps:          6       0       0       0       0       0       0       0       0       0       0       0       
      +0       0       0       0       0
  1519 ;;      Totals:        10       0       0       0       0       0       0       0       0       0       0       0       
      +0       0       0       0       0
  1520 ;;Total ram usage:       10 bytes
  1521 ;; Hardware stack levels used: 1
  1522 ;; Hardware stack levels required when called: 5
  1523 ;; This function calls:
  1524 ;;		Nothing
  1525 ;; This function is called by:
  1526 ;;		_gpio_pin_initialize
  1527 ;;		_ecu_7_segment_write_number
  1528 ;;		_ecu_dc_motor_move_right
  1529 ;;		_ecu_dc_motor_move_left
  1530 ;;		_ecu_keypad_get_value
  1531 ;;		_ecu_lcd_4bits_send_command
  1532 ;;		_ecu_lcd_4bits_send_char_data
  1533 ;;		_ecu_lcd_8bits_send_command
  1534 ;;		_ecu_lcd_8bits_send_char_data
  1535 ;;		_lcd_send_4bits
  1536 ;;		_lcd_4bits_send_enable_signal
  1537 ;;		_lcd_8bits_send_enable_signal
  1538 ;;		_ecu_led_turn_off
  1539 ;;		_ecu_led_turn_on
  1540 ;; This function uses a non-reentrant model
  1541 ;;
  1542                           
  1543                           	psect	text12
  1544   00115A                     __ptext12:
  1545                           	callstack 0
  1546   00115A                     _gpio_pin_write_logic:
  1547                           	callstack 21
  1548   00115A                     
  1549                           ;MCAL_Layer/GPIO/mcal_gpio.c: 83: Std_ReturnType gpio_pin_write_logic(const pin_config_t
      +                          * _pin_config, logic_t logic);MCAL_Layer/GPIO/mcal_gpio.c: 84: {;MCAL_Layer/GPIO/mcal_gp
      +                          io.c: 85:     Std_ReturnType ret = (Std_ReturnType)0x01;
  1550   00115A  0E01               	movlw	1
  1551   00115C  6E72               	movwf	gpio_pin_write_logic@ret^0,c
  1552   00115E                     
  1553                           ;MCAL_Layer/GPIO/mcal_gpio.c: 87:     if(((void*)0) == _pin_config || _pin_config->pin >
      +                           7)
  1554   00115E  5069               	movf	gpio_pin_write_logic@_pin_config^0,w,c
  1555   001160  106A               	iorwf	(gpio_pin_write_logic@_pin_config+1)^0,w,c
  1556   001162  B4D8               	btfsc	status,2,c
  1557   001164  EFB6  F008         	goto	u2691
  1558   001168  EFB8  F008         	goto	u2690
  1559   00116C                     u2691:
  1560   00116C  EFC9  F008         	goto	l4292
  1561   001170                     u2690:
  1562   001170  C069  FFD9         	movff	gpio_pin_write_logic@_pin_config,fsr2l
  1563   001174  C06A  FFDA         	movff	gpio_pin_write_logic@_pin_config+1,fsr2h
  1564   001178  30DF               	rrcf	223,w,c
  1565   00117A  32E8               	rrcf	wreg,f,c
  1566   00117C  32E8               	rrcf	wreg,f,c
  1567   00117E  0B07               	andlw	7
  1568   001180  6E6C               	movwf	??_gpio_pin_write_logic^0,c
  1569   001182  0E07               	movlw	7
  1570   001184  646C               	cpfsgt	??_gpio_pin_write_logic^0,c
  1571   001186  EFC7  F008         	goto	u2701
  1572   00118A  EFC9  F008         	goto	u2700
  1573   00118E                     u2701:
  1574   00118E  EF2C  F009         	goto	l4300
  1575   001192                     u2700:
  1576   001192                     l4292:
  1577                           
  1578                           ;MCAL_Layer/GPIO/mcal_gpio.c: 88:     {;MCAL_Layer/GPIO/mcal_gpio.c: 89:         ret = (
      +                          Std_ReturnType)0x00;
  1579   001192  0E00               	movlw	0
  1580   001194  6E72               	movwf	gpio_pin_write_logic@ret^0,c
  1581                           
  1582                           ;MCAL_Layer/GPIO/mcal_gpio.c: 90:     }
  1583   001196  EF41  F009         	goto	l4302
  1584   00119A                     l4294:
  1585                           
  1586                           ;MCAL_Layer/GPIO/mcal_gpio.c: 97:                 (*lat_registers[_pin_config->port] &= 
      +                          ~((Std_ReturnType)1 << _pin_config->pin));
  1587   00119A  C069  FFD9         	movff	gpio_pin_write_logic@_pin_config,fsr2l
  1588   00119E  C06A  FFDA         	movff	gpio_pin_write_logic@_pin_config+1,fsr2h
  1589   0011A2  30DF               	rrcf	223,w,c
  1590   0011A4  32E8               	rrcf	wreg,f,c
  1591   0011A6  32E8               	rrcf	wreg,f,c
  1592   0011A8  0B07               	andlw	7
  1593   0011AA  6E6C               	movwf	??_gpio_pin_write_logic^0,c
  1594   0011AC  0E01               	movlw	1
  1595   0011AE  6E6D               	movwf	(??_gpio_pin_write_logic+1)^0,c
  1596   0011B0  2A6C               	incf	??_gpio_pin_write_logic^0,f,c
  1597   0011B2  EFDD  F008         	goto	u2714
  1598   0011B6                     u2715:
  1599   0011B6  90D8               	bcf	status,0,c
  1600   0011B8  366D               	rlcf	(??_gpio_pin_write_logic+1)^0,f,c
  1601   0011BA                     u2714:
  1602   0011BA  2E6C               	decfsz	??_gpio_pin_write_logic^0,f,c
  1603   0011BC  EFDB  F008         	goto	u2715
  1604   0011C0  506D               	movf	(??_gpio_pin_write_logic+1)^0,w,c
  1605   0011C2  0AFF               	xorlw	255
  1606   0011C4  6E6E               	movwf	(??_gpio_pin_write_logic+2)^0,c
  1607   0011C6  C069  FFD9         	movff	gpio_pin_write_logic@_pin_config,fsr2l
  1608   0011CA  C06A  FFDA         	movff	gpio_pin_write_logic@_pin_config+1,fsr2h
  1609   0011CE  50DF               	movf	223,w,c
  1610   0011D0  0B07               	andlw	7
  1611   0011D2  6E6F               	movwf	(??_gpio_pin_write_logic+3)^0,c
  1612   0011D4  506F               	movf	(??_gpio_pin_write_logic+3)^0,w,c
  1613   0011D6  0D02               	mullw	2
  1614   0011D8  0E42               	movlw	low _lat_registers
  1615   0011DA  24F3               	addwf	243,w,c
  1616   0011DC  6ED9               	movwf	fsr2l,c
  1617   0011DE  0E00               	movlw	high _lat_registers
  1618   0011E0  20F4               	addwfc	prodh,w,c
  1619   0011E2  6EDA               	movwf	fsr2h,c
  1620   0011E4  CFDE F070          	movff	postinc2,??_gpio_pin_write_logic+4
  1621   0011E8  CFDD F071          	movff	postdec2,??_gpio_pin_write_logic+5
  1622   0011EC  C070  FFD9         	movff	??_gpio_pin_write_logic+4,fsr2l
  1623   0011F0  C071  FFDA         	movff	??_gpio_pin_write_logic+5,fsr2h
  1624   0011F4  506E               	movf	(??_gpio_pin_write_logic+2)^0,w,c
  1625   0011F6  16DF               	andwf	indf2,f,c
  1626                           
  1627                           ;MCAL_Layer/GPIO/mcal_gpio.c: 98:                 break;
  1628   0011F8  EF41  F009         	goto	l4302
  1629   0011FC                     l4296:
  1630                           
  1631                           ;MCAL_Layer/GPIO/mcal_gpio.c: 101:                 (*lat_registers[_pin_config->port] |=
      +                           ((Std_ReturnType)1 << _pin_config->pin));
  1632   0011FC  C069  FFD9         	movff	gpio_pin_write_logic@_pin_config,fsr2l
  1633   001200  C06A  FFDA         	movff	gpio_pin_write_logic@_pin_config+1,fsr2h
  1634   001204  30DF               	rrcf	223,w,c
  1635   001206  32E8               	rrcf	wreg,f,c
  1636   001208  32E8               	rrcf	wreg,f,c
  1637   00120A  0B07               	andlw	7
  1638   00120C  6E6C               	movwf	??_gpio_pin_write_logic^0,c
  1639   00120E  0E01               	movlw	1
  1640   001210  6E6D               	movwf	(??_gpio_pin_write_logic+1)^0,c
  1641   001212  2A6C               	incf	??_gpio_pin_write_logic^0,f,c
  1642   001214  EF0E  F009         	goto	u2724
  1643   001218                     u2725:
  1644   001218  90D8               	bcf	status,0,c
  1645   00121A  366D               	rlcf	(??_gpio_pin_write_logic+1)^0,f,c
  1646   00121C                     u2724:
  1647   00121C  2E6C               	decfsz	??_gpio_pin_write_logic^0,f,c
  1648   00121E  EF0C  F009         	goto	u2725
  1649   001222  C069  FFD9         	movff	gpio_pin_write_logic@_pin_config,fsr2l
  1650   001226  C06A  FFDA         	movff	gpio_pin_write_logic@_pin_config+1,fsr2h
  1651   00122A  50DF               	movf	223,w,c
  1652   00122C  0B07               	andlw	7
  1653   00122E  6E6E               	movwf	(??_gpio_pin_write_logic+2)^0,c
  1654   001230  506E               	movf	(??_gpio_pin_write_logic+2)^0,w,c
  1655   001232  0D02               	mullw	2
  1656   001234  0E42               	movlw	low _lat_registers
  1657   001236  24F3               	addwf	243,w,c
  1658   001238  6ED9               	movwf	fsr2l,c
  1659   00123A  0E00               	movlw	high _lat_registers
  1660   00123C  20F4               	addwfc	prodh,w,c
  1661   00123E  6EDA               	movwf	fsr2h,c
  1662   001240  CFDE F06F          	movff	postinc2,??_gpio_pin_write_logic+3
  1663   001244  CFDD F070          	movff	postdec2,??_gpio_pin_write_logic+4
  1664   001248  C06F  FFD9         	movff	??_gpio_pin_write_logic+3,fsr2l
  1665   00124C  C070  FFDA         	movff	??_gpio_pin_write_logic+4,fsr2h
  1666   001250  506D               	movf	(??_gpio_pin_write_logic+1)^0,w,c
  1667   001252  12DF               	iorwf	indf2,f,c
  1668                           
  1669                           ;MCAL_Layer/GPIO/mcal_gpio.c: 102:                 break;
  1670   001254  EF41  F009         	goto	l4302
  1671   001258                     l4300:
  1672   001258  506B               	movf	gpio_pin_write_logic@logic^0,w,c
  1673   00125A  6E6C               	movwf	??_gpio_pin_write_logic^0,c
  1674   00125C  6A6D               	clrf	(??_gpio_pin_write_logic+1)^0,c
  1675                           
  1676                           ; Switch on 2 bytes has been partitioned into a top level switch of size 1, and 1 sub-sw
      +                          itches
  1677                           ; Switch size 1, requested type "simple"
  1678                           ; Number of cases is 1, Range of values is 0 to 0
  1679                           ; switch strategies available:
  1680                           ; Name         Instructions Cycles
  1681                           ; simple_byte            4     3 (average)
  1682                           ;	Chosen strategy is simple_byte
  1683   00125E  506D               	movf	(??_gpio_pin_write_logic+1)^0,w,c
  1684   001260  0A00               	xorlw	0	; case 0
  1685   001262  B4D8               	btfsc	status,2,c
  1686   001264  EF36  F009         	goto	l5088
  1687   001268  EFC9  F008         	goto	l4292
  1688   00126C                     l5088:
  1689                           
  1690                           ; Switch size 1, requested type "simple"
  1691                           ; Number of cases is 2, Range of values is 0 to 1
  1692                           ; switch strategies available:
  1693                           ; Name         Instructions Cycles
  1694                           ; simple_byte            7     4 (average)
  1695                           ;	Chosen strategy is simple_byte
  1696   00126C  506C               	movf	??_gpio_pin_write_logic^0,w,c
  1697   00126E  0A00               	xorlw	0	; case 0
  1698   001270  B4D8               	btfsc	status,2,c
  1699   001272  EFCD  F008         	goto	l4294
  1700   001276  0A01               	xorlw	1	; case 1
  1701   001278  B4D8               	btfsc	status,2,c
  1702   00127A  EFFE  F008         	goto	l4296
  1703   00127E  EFC9  F008         	goto	l4292
  1704   001282                     l4302:
  1705                           
  1706                           ;MCAL_Layer/GPIO/mcal_gpio.c: 108:     return ret;
  1707   001282  5072               	movf	gpio_pin_write_logic@ret^0,w,c
  1708   001284  0012               	return		;funcret
  1709   001286                     __end_of_gpio_pin_write_logic:
  1710                           	callstack 0
  1711                           
  1712 ;; *************** function _gpio_pin_direction_initialize *****************
  1713 ;; Defined at:
  1714 ;;		line 25 in file "MCAL_Layer/GPIO/mcal_gpio.c"
  1715 ;; Parameters:    Size  Location     Type
  1716 ;;  _pin_config     2    5[COMRAM] PTR const struct .
  1717 ;;		 -> Timer0_Mode_Select@_T0CKI_config(1), led_2(1), led_1(1), 
  1718 ;; Auto vars:     Size  Location     Type
  1719 ;;  ret             1   13[COMRAM] unsigned char 
  1720 ;; Return value:  Size  Location     Type
  1721 ;;                  1    wreg      unsigned char 
  1722 ;; Registers used:
  1723 ;;		wreg, fsr2l, fsr2h, status,2, status,0, prodl, prodh
  1724 ;; Tracked objects:
  1725 ;;		On entry : 0/0
  1726 ;;		On exit  : 0/0
  1727 ;;		Unchanged: 0/0
  1728 ;; Data sizes:     COMRAM   BANK0   BANK1   BANK2   BANK3   BANK4   BANK5   BANK6   BANK7   BANK8   BANK9  BANK10  BANK1
      +1  BANK12  BANK13  BANK14  BANK15
  1729 ;;      Params:         2       0       0       0       0       0       0       0       0       0       0       0       
      +0       0       0       0       0
  1730 ;;      Locals:         1       0       0       0       0       0       0       0       0       0       0       0       
      +0       0       0       0       0
  1731 ;;      Temps:          6       0       0       0       0       0       0       0       0       0       0       0       
      +0       0       0       0       0
  1732 ;;      Totals:         9       0       0       0       0       0       0       0       0       0       0       0       
      +0       0       0       0       0
  1733 ;;Total ram usage:        9 bytes
  1734 ;; Hardware stack levels used: 1
  1735 ;; Hardware stack levels required when called: 5
  1736 ;; This function calls:
  1737 ;;		Nothing
  1738 ;; This function is called by:
  1739 ;;		_gpio_pin_initialize
  1740 ;;		_Timer0_Mode_Select
  1741 ;;		_ecu_button_initialize
  1742 ;;		_ecu_keypad_initialize
  1743 ;;		_Interrupt_INTx_Pin_Init
  1744 ;;		_Interrupt_RBx_Pin_Init
  1745 ;; This function uses a non-reentrant model
  1746 ;;
  1747                           
  1748                           	psect	text13
  1749   001016                     __ptext13:
  1750                           	callstack 0
  1751   001016                     _gpio_pin_direction_initialize:
  1752                           	callstack 22
  1753   001016                     
  1754                           ;MCAL_Layer/GPIO/mcal_gpio.c: 25: Std_ReturnType gpio_pin_direction_initialize(const pin
      +                          _config_t* _pin_config);MCAL_Layer/GPIO/mcal_gpio.c: 26: {;MCAL_Layer/GPIO/mcal_gpio.c: 
      +                          27:     Std_ReturnType ret = (Std_ReturnType)0x01;
  1755   001016  0E01               	movlw	1
  1756   001018  6E71               	movwf	gpio_pin_direction_initialize@ret^0,c
  1757   00101A                     
  1758                           ;MCAL_Layer/GPIO/mcal_gpio.c: 29:     if(((void*)0) == _pin_config || _pin_config->pin >
      +                           7)
  1759   00101A  5069               	movf	gpio_pin_direction_initialize@_pin_config^0,w,c
  1760   00101C  106A               	iorwf	(gpio_pin_direction_initialize@_pin_config+1)^0,w,c
  1761   00101E  B4D8               	btfsc	status,2,c
  1762   001020  EF14  F008         	goto	u2731
  1763   001024  EF16  F008         	goto	u2730
  1764   001028                     u2731:
  1765   001028  EF27  F008         	goto	l4316
  1766   00102C                     u2730:
  1767   00102C  C069  FFD9         	movff	gpio_pin_direction_initialize@_pin_config,fsr2l
  1768   001030  C06A  FFDA         	movff	gpio_pin_direction_initialize@_pin_config+1,fsr2h
  1769   001034  30DF               	rrcf	223,w,c
  1770   001036  32E8               	rrcf	wreg,f,c
  1771   001038  32E8               	rrcf	wreg,f,c
  1772   00103A  0B07               	andlw	7
  1773   00103C  6E6B               	movwf	??_gpio_pin_direction_initialize^0,c
  1774   00103E  0E07               	movlw	7
  1775   001040  646B               	cpfsgt	??_gpio_pin_direction_initialize^0,c
  1776   001042  EF25  F008         	goto	u2741
  1777   001046  EF27  F008         	goto	u2740
  1778   00104A                     u2741:
  1779   00104A  EF8A  F008         	goto	l4324
  1780   00104E                     u2740:
  1781   00104E                     l4316:
  1782                           
  1783                           ;MCAL_Layer/GPIO/mcal_gpio.c: 30:     {;MCAL_Layer/GPIO/mcal_gpio.c: 31:         ret = (
      +                          Std_ReturnType)0x00;
  1784   00104E  0E00               	movlw	0
  1785   001050  6E71               	movwf	gpio_pin_direction_initialize@ret^0,c
  1786                           
  1787                           ;MCAL_Layer/GPIO/mcal_gpio.c: 32:     }
  1788   001052  EFAB  F008         	goto	l4326
  1789   001056                     l4318:
  1790                           
  1791                           ;MCAL_Layer/GPIO/mcal_gpio.c: 39:                 (*tris_registers[_pin_config->port] &=
      +                           ~((Std_ReturnType)1 << _pin_config->pin));
  1792   001056  C069  FFD9         	movff	gpio_pin_direction_initialize@_pin_config,fsr2l
  1793   00105A  C06A  FFDA         	movff	gpio_pin_direction_initialize@_pin_config+1,fsr2h
  1794   00105E  30DF               	rrcf	223,w,c
  1795   001060  32E8               	rrcf	wreg,f,c
  1796   001062  32E8               	rrcf	wreg,f,c
  1797   001064  0B07               	andlw	7
  1798   001066  6E6B               	movwf	??_gpio_pin_direction_initialize^0,c
  1799   001068  0E01               	movlw	1
  1800   00106A  6E6C               	movwf	(??_gpio_pin_direction_initialize+1)^0,c
  1801   00106C  2A6B               	incf	??_gpio_pin_direction_initialize^0,f,c
  1802   00106E  EF3B  F008         	goto	u2754
  1803   001072                     u2755:
  1804   001072  90D8               	bcf	status,0,c
  1805   001074  366C               	rlcf	(??_gpio_pin_direction_initialize+1)^0,f,c
  1806   001076                     u2754:
  1807   001076  2E6B               	decfsz	??_gpio_pin_direction_initialize^0,f,c
  1808   001078  EF39  F008         	goto	u2755
  1809   00107C  506C               	movf	(??_gpio_pin_direction_initialize+1)^0,w,c
  1810   00107E  0AFF               	xorlw	255
  1811   001080  6E6D               	movwf	(??_gpio_pin_direction_initialize+2)^0,c
  1812   001082  C069  FFD9         	movff	gpio_pin_direction_initialize@_pin_config,fsr2l
  1813   001086  C06A  FFDA         	movff	gpio_pin_direction_initialize@_pin_config+1,fsr2h
  1814   00108A  50DF               	movf	223,w,c
  1815   00108C  0B07               	andlw	7
  1816   00108E  6E6E               	movwf	(??_gpio_pin_direction_initialize+3)^0,c
  1817   001090  506E               	movf	(??_gpio_pin_direction_initialize+3)^0,w,c
  1818   001092  0D02               	mullw	2
  1819   001094  0E4C               	movlw	low _tris_registers
  1820   001096  24F3               	addwf	243,w,c
  1821   001098  6ED9               	movwf	fsr2l,c
  1822   00109A  0E00               	movlw	high _tris_registers
  1823   00109C  20F4               	addwfc	prodh,w,c
  1824   00109E  6EDA               	movwf	fsr2h,c
  1825   0010A0  CFDE F06F          	movff	postinc2,??_gpio_pin_direction_initialize+4
  1826   0010A4  CFDD F070          	movff	postdec2,??_gpio_pin_direction_initialize+5
  1827   0010A8  C06F  FFD9         	movff	??_gpio_pin_direction_initialize+4,fsr2l
  1828   0010AC  C070  FFDA         	movff	??_gpio_pin_direction_initialize+5,fsr2h
  1829   0010B0  506D               	movf	(??_gpio_pin_direction_initialize+2)^0,w,c
  1830   0010B2  16DF               	andwf	indf2,f,c
  1831                           
  1832                           ;MCAL_Layer/GPIO/mcal_gpio.c: 40:                 break;
  1833   0010B4  EFAB  F008         	goto	l4326
  1834   0010B8                     l4320:
  1835                           
  1836                           ;MCAL_Layer/GPIO/mcal_gpio.c: 43:                 (*tris_registers[_pin_config->port] |=
      +                           ((Std_ReturnType)1 << _pin_config->pin));
  1837   0010B8  C069  FFD9         	movff	gpio_pin_direction_initialize@_pin_config,fsr2l
  1838   0010BC  C06A  FFDA         	movff	gpio_pin_direction_initialize@_pin_config+1,fsr2h
  1839   0010C0  30DF               	rrcf	223,w,c
  1840   0010C2  32E8               	rrcf	wreg,f,c
  1841   0010C4  32E8               	rrcf	wreg,f,c
  1842   0010C6  0B07               	andlw	7
  1843   0010C8  6E6B               	movwf	??_gpio_pin_direction_initialize^0,c
  1844   0010CA  0E01               	movlw	1
  1845   0010CC  6E6C               	movwf	(??_gpio_pin_direction_initialize+1)^0,c
  1846   0010CE  2A6B               	incf	??_gpio_pin_direction_initialize^0,f,c
  1847   0010D0  EF6C  F008         	goto	u2764
  1848   0010D4                     u2765:
  1849   0010D4  90D8               	bcf	status,0,c
  1850   0010D6  366C               	rlcf	(??_gpio_pin_direction_initialize+1)^0,f,c
  1851   0010D8                     u2764:
  1852   0010D8  2E6B               	decfsz	??_gpio_pin_direction_initialize^0,f,c
  1853   0010DA  EF6A  F008         	goto	u2765
  1854   0010DE  C069  FFD9         	movff	gpio_pin_direction_initialize@_pin_config,fsr2l
  1855   0010E2  C06A  FFDA         	movff	gpio_pin_direction_initialize@_pin_config+1,fsr2h
  1856   0010E6  50DF               	movf	223,w,c
  1857   0010E8  0B07               	andlw	7
  1858   0010EA  6E6D               	movwf	(??_gpio_pin_direction_initialize+2)^0,c
  1859   0010EC  506D               	movf	(??_gpio_pin_direction_initialize+2)^0,w,c
  1860   0010EE  0D02               	mullw	2
  1861   0010F0  0E4C               	movlw	low _tris_registers
  1862   0010F2  24F3               	addwf	243,w,c
  1863   0010F4  6ED9               	movwf	fsr2l,c
  1864   0010F6  0E00               	movlw	high _tris_registers
  1865   0010F8  20F4               	addwfc	prodh,w,c
  1866   0010FA  6EDA               	movwf	fsr2h,c
  1867   0010FC  CFDE F06E          	movff	postinc2,??_gpio_pin_direction_initialize+3
  1868   001100  CFDD F06F          	movff	postdec2,??_gpio_pin_direction_initialize+4
  1869   001104  C06E  FFD9         	movff	??_gpio_pin_direction_initialize+3,fsr2l
  1870   001108  C06F  FFDA         	movff	??_gpio_pin_direction_initialize+4,fsr2h
  1871   00110C  506C               	movf	(??_gpio_pin_direction_initialize+1)^0,w,c
  1872   00110E  12DF               	iorwf	indf2,f,c
  1873                           
  1874                           ;MCAL_Layer/GPIO/mcal_gpio.c: 44:                 break;
  1875   001110  EFAB  F008         	goto	l4326
  1876   001114                     l4324:
  1877   001114  C069  FFD9         	movff	gpio_pin_direction_initialize@_pin_config,fsr2l
  1878   001118  C06A  FFDA         	movff	gpio_pin_direction_initialize@_pin_config+1,fsr2h
  1879   00111C  BCDF               	btfsc	indf2,6,c
  1880   00111E  EF93  F008         	goto	u2771
  1881   001122  EF96  F008         	goto	u2770
  1882   001126                     u2771:
  1883   001126  0E01               	movlw	1
  1884   001128  EF97  F008         	goto	u2780
  1885   00112C                     u2770:
  1886   00112C  0E00               	movlw	0
  1887   00112E                     u2780:
  1888   00112E  6E6B               	movwf	??_gpio_pin_direction_initialize^0,c
  1889   001130  6A6C               	clrf	(??_gpio_pin_direction_initialize+1)^0,c
  1890                           
  1891                           ; Switch on 2 bytes has been partitioned into a top level switch of size 1, and 1 sub-sw
      +                          itches
  1892                           ; Switch size 1, requested type "simple"
  1893                           ; Number of cases is 1, Range of values is 0 to 0
  1894                           ; switch strategies available:
  1895                           ; Name         Instructions Cycles
  1896                           ; simple_byte            4     3 (average)
  1897                           ;	Chosen strategy is simple_byte
  1898   001132  506C               	movf	(??_gpio_pin_direction_initialize+1)^0,w,c
  1899   001134  0A00               	xorlw	0	; case 0
  1900   001136  B4D8               	btfsc	status,2,c
  1901   001138  EFA0  F008         	goto	l5090
  1902   00113C  EF27  F008         	goto	l4316
  1903   001140                     l5090:
  1904                           
  1905                           ; Switch size 1, requested type "simple"
  1906                           ; Number of cases is 2, Range of values is 0 to 1
  1907                           ; switch strategies available:
  1908                           ; Name         Instructions Cycles
  1909                           ; simple_byte            7     4 (average)
  1910                           ;	Chosen strategy is simple_byte
  1911   001140  506B               	movf	??_gpio_pin_direction_initialize^0,w,c
  1912   001142  0A00               	xorlw	0	; case 0
  1913   001144  B4D8               	btfsc	status,2,c
  1914   001146  EF2B  F008         	goto	l4318
  1915   00114A  0A01               	xorlw	1	; case 1
  1916   00114C  B4D8               	btfsc	status,2,c
  1917   00114E  EF5C  F008         	goto	l4320
  1918   001152  EF27  F008         	goto	l4316
  1919   001156                     l4326:
  1920                           
  1921                           ;MCAL_Layer/GPIO/mcal_gpio.c: 51:     return ret;
  1922   001156  5071               	movf	gpio_pin_direction_initialize@ret^0,w,c
  1923   001158  0012               	return		;funcret
  1924   00115A                     __end_of_gpio_pin_direction_initialize:
  1925                           	callstack 0
  1926                           
  1927 ;; *************** function _InterruptManagerLow *****************
  1928 ;; Defined at:
  1929 ;;		line 34 in file "MCAL_Layer/Interrupt/mcal_interrupt_manager.c"
  1930 ;; Parameters:    Size  Location     Type
  1931 ;;		None
  1932 ;; Auto vars:     Size  Location     Type
  1933 ;;		None
  1934 ;; Return value:  Size  Location     Type
  1935 ;;                  1    wreg      void 
  1936 ;; Registers used:
  1937 ;;		cstack
  1938 ;; Tracked objects:
  1939 ;;		On entry : 0/0
  1940 ;;		On exit  : 0/0
  1941 ;;		Unchanged: 0/0
  1942 ;; Data sizes:     COMRAM   BANK0   BANK1   BANK2   BANK3   BANK4   BANK5   BANK6   BANK7   BANK8   BANK9  BANK10  BANK1
      +1  BANK12  BANK13  BANK14  BANK15
  1943 ;;      Params:         0       0       0       0       0       0       0       0       0       0       0       0       
      +0       0       0       0       0
  1944 ;;      Locals:         0       0       0       0       0       0       0       0       0       0       0       0       
      +0       0       0       0       0
  1945 ;;      Temps:          1       0       0       0       0       0       0       0       0       0       0       0       
      +0       0       0       0       0
  1946 ;;      Totals:         1       0       0       0       0       0       0       0       0       0       0       0       
      +0       0       0       0       0
  1947 ;;Total ram usage:        1 bytes
  1948 ;; Hardware stack levels used: 1
  1949 ;; Hardware stack levels required when called: 4
  1950 ;; This function calls:
  1951 ;;		_INT1_ISR
  1952 ;; This function is called by:
  1953 ;;		Interrupt level 1
  1954 ;; This function uses a non-reentrant model
  1955 ;;
  1956                           
  1957                           	psect	intcodelo
  1958   000018                     __pintcodelo:
  1959                           	callstack 0
  1960   000018                     _InterruptManagerLow:
  1961                           	callstack 21
  1962                           
  1963                           ;incstack = 0
  1964   000018  807A               	bsf	int$flags,0,c	;set compiler interrupt flag (level 1)
  1965   00001A  CFE0 F068          	movff	bsr,??_InterruptManagerLow
  1966   00001E                     
  1967                           ;MCAL_Layer/Interrupt/mcal_interrupt_manager.c: 36:     if(1 == INTCON3bits.INT1IE && 1 
      +                          == INTCON3bits.INT1IF)
  1968   00001E  A6F0               	btfss	240,3,c	;volatile
  1969   000020  EF14  F000         	goto	i1u170_21
  1970   000024  EF16  F000         	goto	i1u170_20
  1971   000028                     i1u170_21:
  1972   000028  EF1F  F000         	goto	i1l889
  1973   00002C                     i1u170_20:
  1974   00002C  A0F0               	btfss	240,0,c	;volatile
  1975   00002E  EF1B  F000         	goto	i1u171_21
  1976   000032  EF1D  F000         	goto	i1u171_20
  1977   000036                     i1u171_21:
  1978   000036  EF1F  F000         	goto	i1l889
  1979   00003A                     i1u171_20:
  1980   00003A                     
  1981                           ;MCAL_Layer/Interrupt/mcal_interrupt_manager.c: 37:     {;MCAL_Layer/Interrupt/mcal_inte
      +                          rrupt_manager.c: 38:         INT1_ISR();
  1982   00003A  EC92  F00B         	call	_INT1_ISR	;wreg free
  1983   00003E                     i1l889:
  1984   00003E  C068  FFE0         	movff	??_InterruptManagerLow,bsr
  1985   000042  907A               	bcf	int$flags,0,c	;clear compiler interrupt flag (level 1)
  1986   000044  0010               	retfie	
  1987   000046                     __end_of_InterruptManagerLow:
  1988                           	callstack 0
  1989                           
  1990 ;; *************** function _INT1_ISR *****************
  1991 ;; Defined at:
  1992 ;;		line 83 in file "MCAL_Layer/Interrupt/mcal_external_interrupt.c"
  1993 ;; Parameters:    Size  Location     Type
  1994 ;;		None
  1995 ;; Auto vars:     Size  Location     Type
  1996 ;;		None
  1997 ;; Return value:  Size  Location     Type
  1998 ;;                  1    wreg      void 
  1999 ;; Registers used:
  2000 ;;		None
  2001 ;; Tracked objects:
  2002 ;;		On entry : 0/0
  2003 ;;		On exit  : 0/0
  2004 ;;		Unchanged: 0/0
  2005 ;; Data sizes:     COMRAM   BANK0   BANK1   BANK2   BANK3   BANK4   BANK5   BANK6   BANK7   BANK8   BANK9  BANK10  BANK1
      +1  BANK12  BANK13  BANK14  BANK15
  2006 ;;      Params:         0       0       0       0       0       0       0       0       0       0       0       0       
      +0       0       0       0       0
  2007 ;;      Locals:         0       0       0       0       0       0       0       0       0       0       0       0       
      +0       0       0       0       0
  2008 ;;      Temps:          0       0       0       0       0       0       0       0       0       0       0       0       
      +0       0       0       0       0
  2009 ;;      Totals:         0       0       0       0       0       0       0       0       0       0       0       0       
      +0       0       0       0       0
  2010 ;;Total ram usage:        0 bytes
  2011 ;; Hardware stack levels used: 1
  2012 ;; Hardware stack levels required when called: 3
  2013 ;; This function calls:
  2014 ;;		Nothing
  2015 ;; This function is called by:
  2016 ;;		_InterruptManagerLow
  2017 ;; This function uses a non-reentrant model
  2018 ;;
  2019                           
  2020                           	psect	text15
  2021   001724                     __ptext15:
  2022                           	callstack 0
  2023   001724                     _INT1_ISR:
  2024                           	callstack 21
  2025   001724                     
  2026                           ;MCAL_Layer/Interrupt/mcal_external_interrupt.c: 86:     (INTCON3bits.INT1IF = 0);
  2027   001724  90F0               	bcf	240,0,c	;volatile
  2028   001726  0012               	return		;funcret
  2029   001728                     __end_of_INT1_ISR:
  2030                           	callstack 0
  2031                           
  2032 ;; *************** function _InterruptManagerHigh *****************
  2033 ;; Defined at:
  2034 ;;		line 13 in file "MCAL_Layer/Interrupt/mcal_interrupt_manager.c"
  2035 ;; Parameters:    Size  Location     Type
  2036 ;;		None
  2037 ;; Auto vars:     Size  Location     Type
  2038 ;;		None
  2039 ;; Return value:  Size  Location     Type
  2040 ;;                  1    wreg      void 
  2041 ;; Registers used:
  2042 ;;		wreg, status,2, status,0, pcl, pclath, pclatu, tosl, cstack
  2043 ;; Tracked objects:
  2044 ;;		On entry : 0/0
  2045 ;;		On exit  : 0/0
  2046 ;;		Unchanged: 0/0
  2047 ;; Data sizes:     COMRAM   BANK0   BANK1   BANK2   BANK3   BANK4   BANK5   BANK6   BANK7   BANK8   BANK9  BANK10  BANK1
      +1  BANK12  BANK13  BANK14  BANK15
  2048 ;;      Params:         0       0       0       0       0       0       0       0       0       0       0       0       
      +0       0       0       0       0
  2049 ;;      Locals:         0       0       0       0       0       0       0       0       0       0       0       0       
      +0       0       0       0       0
  2050 ;;      Temps:          2       0       0       0       0       0       0       0       0       0       0       0       
      +0       0       0       0       0
  2051 ;;      Totals:         2       0       0       0       0       0       0       0       0       0       0       0       
      +0       0       0       0       0
  2052 ;;Total ram usage:        2 bytes
  2053 ;; Hardware stack levels used: 1
  2054 ;; Hardware stack levels required when called: 2
  2055 ;; This function calls:
  2056 ;;		_INT0_ISR
  2057 ;;		_INT2_ISR
  2058 ;;		_TIMER0_ISR
  2059 ;; This function is called by:
  2060 ;;		Interrupt level 2
  2061 ;; This function uses a non-reentrant model
  2062 ;;
  2063                           
  2064                           	psect	intcode
  2065   000008                     __pintcode:
  2066                           	callstack 0
  2067   000008                     _InterruptManagerHigh:
  2068                           	callstack 21
  2069                           
  2070                           ;incstack = 0
  2071   000008  827A               	bsf	int$flags,1,c	;set compiler interrupt flag (level 2)
  2072   00000A  EDE6  F009         	call	int_func,f	;refresh shadow registers
  2073                           
  2074                           	psect	intcode_body
  2075   0013CC                     __pintcode_body:
  2076                           	callstack 21
  2077   0013CC                     int_func:
  2078                           	callstack 21
  2079   0013CC  0006               	pop		; remove dummy address from shadow register refresh
  2080   0013CE  CFFA F066          	movff	pclath,??_InterruptManagerHigh
  2081   0013D2  CFFB F067          	movff	pclatu,??_InterruptManagerHigh+1
  2082   0013D6                     
  2083                           ;MCAL_Layer/Interrupt/mcal_interrupt_manager.c: 15:     if(1 == INTCONbits.INT0IE && 1 =
      +                          = INTCONbits.INT0IF)
  2084   0013D6  A8F2               	btfss	242,4,c	;volatile
  2085   0013D8  EFF0  F009         	goto	i2u263_41
  2086   0013DC  EFF2  F009         	goto	i2u263_40
  2087   0013E0                     i2u263_41:
  2088   0013E0  EFFB  F009         	goto	i2l877
  2089   0013E4                     i2u263_40:
  2090   0013E4  A2F2               	btfss	242,1,c	;volatile
  2091   0013E6  EFF7  F009         	goto	i2u264_41
  2092   0013EA  EFF9  F009         	goto	i2u264_40
  2093   0013EE                     i2u264_41:
  2094   0013EE  EFFB  F009         	goto	i2l877
  2095   0013F2                     i2u264_40:
  2096   0013F2                     
  2097                           ;MCAL_Layer/Interrupt/mcal_interrupt_manager.c: 16:     {;MCAL_Layer/Interrupt/mcal_inte
      +                          rrupt_manager.c: 17:         INT0_ISR();
  2098   0013F2  EC96  F00B         	call	_INT0_ISR	;wreg free
  2099   0013F6                     i2l877:
  2100                           
  2101                           ;MCAL_Layer/Interrupt/mcal_interrupt_manager.c: 21:     if(1 == INTCON3bits.INT2IE && 1 
      +                          == INTCON3bits.INT2IF)
  2102   0013F6  A8F0               	btfss	240,4,c	;volatile
  2103   0013F8  EF00  F00A         	goto	i2u265_41
  2104   0013FC  EF02  F00A         	goto	i2u265_40
  2105   001400                     i2u265_41:
  2106   001400  EF0B  F00A         	goto	i2l879
  2107   001404                     i2u265_40:
  2108   001404  A2F0               	btfss	240,1,c	;volatile
  2109   001406  EF07  F00A         	goto	i2u266_41
  2110   00140A  EF09  F00A         	goto	i2u266_40
  2111   00140E                     i2u266_41:
  2112   00140E  EF0B  F00A         	goto	i2l879
  2113   001412                     i2u266_40:
  2114   001412                     
  2115                           ;MCAL_Layer/Interrupt/mcal_interrupt_manager.c: 22:     {;MCAL_Layer/Interrupt/mcal_inte
      +                          rrupt_manager.c: 23:         INT2_ISR();
  2116   001412  EC94  F00B         	call	_INT2_ISR	;wreg free
  2117   001416                     i2l879:
  2118                           
  2119                           ;MCAL_Layer/Interrupt/mcal_interrupt_manager.c: 27:     if((1 == INTCONbits.TMR0IE) && (
      +                          1 == INTCONbits.TMR0IF))
  2120   001416  AAF2               	btfss	242,5,c	;volatile
  2121   001418  EF10  F00A         	goto	i2u267_41
  2122   00141C  EF12  F00A         	goto	i2u267_40
  2123   001420                     i2u267_41:
  2124   001420  EF1B  F00A         	goto	i2l882
  2125   001424                     i2u267_40:
  2126   001424  A4F2               	btfss	242,2,c	;volatile
  2127   001426  EF17  F00A         	goto	i2u268_41
  2128   00142A  EF19  F00A         	goto	i2u268_40
  2129   00142E                     i2u268_41:
  2130   00142E  EF1B  F00A         	goto	i2l882
  2131   001432                     i2u268_40:
  2132   001432                     
  2133                           ;MCAL_Layer/Interrupt/mcal_interrupt_manager.c: 28:     {;MCAL_Layer/Interrupt/mcal_inte
      +                          rrupt_manager.c: 29:         TIMER0_ISR();
  2134   001432  ECEC  F00A         	call	_TIMER0_ISR	;wreg free
  2135   001436                     i2l882:
  2136   001436  C067  FFFB         	movff	??_InterruptManagerHigh+1,pclatu
  2137   00143A  C066  FFFA         	movff	??_InterruptManagerHigh,pclath
  2138   00143E  927A               	bcf	int$flags,1,c	;clear compiler interrupt flag (level 2)
  2139   001440  0011               	retfie		f
  2140   001442                     __end_of_InterruptManagerHigh:
  2141                           	callstack 0
  2142                           
  2143 ;; *************** function _TIMER0_ISR *****************
  2144 ;; Defined at:
  2145 ;;		line 200 in file "MCAL_Layer/Timer0/mcal_timer0.c"
  2146 ;; Parameters:    Size  Location     Type
  2147 ;;		None
  2148 ;; Auto vars:     Size  Location     Type
  2149 ;;		None
  2150 ;; Return value:  Size  Location     Type
  2151 ;;                  1    wreg      void 
  2152 ;; Registers used:
  2153 ;;		wreg, status,2, status,0, pcl, pclath, pclatu, tosl, cstack
  2154 ;; Tracked objects:
  2155 ;;		On entry : 0/0
  2156 ;;		On exit  : 0/0
  2157 ;;		Unchanged: 0/0
  2158 ;; Data sizes:     COMRAM   BANK0   BANK1   BANK2   BANK3   BANK4   BANK5   BANK6   BANK7   BANK8   BANK9  BANK10  BANK1
      +1  BANK12  BANK13  BANK14  BANK15
  2159 ;;      Params:         0       0       0       0       0       0       0       0       0       0       0       0       
      +0       0       0       0       0
  2160 ;;      Locals:         0       0       0       0       0       0       0       0       0       0       0       0       
      +0       0       0       0       0
  2161 ;;      Temps:          0       0       0       0       0       0       0       0       0       0       0       0       
      +0       0       0       0       0
  2162 ;;      Totals:         0       0       0       0       0       0       0       0       0       0       0       0       
      +0       0       0       0       0
  2163 ;;Total ram usage:        0 bytes
  2164 ;; Hardware stack levels used: 1
  2165 ;; Hardware stack levels required when called: 1
  2166 ;; This function calls:
  2167 ;;		NULL
  2168 ;;		_Timer0_App_ISR
  2169 ;;		i2_Timer0_Preload_Config
  2170 ;; This function is called by:
  2171 ;;		_InterruptManagerHigh
  2172 ;; This function uses a non-reentrant model
  2173 ;;
  2174                           
  2175                           	psect	text17
  2176   0015D8                     __ptext17:
  2177                           	callstack 0
  2178   0015D8                     _TIMER0_ISR:
  2179                           	callstack 21
  2180   0015D8                     
  2181                           ;MCAL_Layer/Timer0/mcal_timer0.c: 203:         (INTCONbits.TMR0IF = 0);
  2182   0015D8  94F2               	bcf	242,2,c	;volatile
  2183   0015DA                     
  2184                           ;MCAL_Layer/Timer0/mcal_timer0.c: 205:         Timer0_Preload_Config(timer0_preload);
  2185   0015DA  C01A  F064         	movff	_timer0_preload,i2Timer0_Preload_Config@preload_value
  2186   0015DE  C01B  F065         	movff	_timer0_preload+1,i2Timer0_Preload_Config@preload_value+1
  2187   0015E2  EC89  F00B         	call	i2_Timer0_Preload_Config	;wreg free
  2188   0015E6                     
  2189                           ;MCAL_Layer/Timer0/mcal_timer0.c: 207:         if(Timer0_InterruptHandler)
  2190   0015E6  501C               	movf	_Timer0_InterruptHandler^0,w,c
  2191   0015E8  101D               	iorwf	(_Timer0_InterruptHandler+1)^0,w,c
  2192   0015EA  B4D8               	btfsc	status,2,c
  2193   0015EC  EFFA  F00A         	goto	i2u223_41
  2194   0015F0  EFFC  F00A         	goto	i2u223_40
  2195   0015F4                     i2u223_41:
  2196   0015F4  EF08  F00B         	goto	i2l973
  2197   0015F8                     i2u223_40:
  2198   0015F8                     
  2199                           ;MCAL_Layer/Timer0/mcal_timer0.c: 208:         {;MCAL_Layer/Timer0/mcal_timer0.c: 209:  
      +                                     Timer0_InterruptHandler();
  2200   0015F8  D802               	call	i2u224_48
  2201   0015FA  EF08  F00B         	goto	i2u224_49
  2202   0015FE                     i2u224_48:
  2203   0015FE  0005               	push	
  2204   001600  6EFA               	movwf	pclath,c
  2205   001602  501C               	movf	_Timer0_InterruptHandler^0,w,c
  2206   001604  6EFD               	movwf	tosl,c
  2207   001606  501D               	movf	(_Timer0_InterruptHandler+1)^0,w,c
  2208   001608  6EFE               	movwf	tosh,c
  2209   00160A  6AFF               	clrf	tosu,c
  2210   00160C  50FA               	movf	pclath,w,c
  2211   00160E  0012               	return		;indir
  2212   001610                     i2u224_49:
  2213   001610                     i2l973:
  2214   001610  0012               	return		;funcret
  2215   001612                     __end_of_TIMER0_ISR:
  2216                           	callstack 0
  2217                           
  2218 ;; *************** function i2_Timer0_Preload_Config *****************
  2219 ;; Defined at:
  2220 ;;		line 193 in file "MCAL_Layer/Timer0/mcal_timer0.c"
  2221 ;; Parameters:    Size  Location     Type
  2222 ;;  preload_valu    2    0[COMRAM] unsigned short 
  2223 ;; Auto vars:     Size  Location     Type
  2224 ;;		None
  2225 ;; Return value:  Size  Location     Type
  2226 ;;                  1    wreg      void 
  2227 ;; Registers used:
  2228 ;;		wreg, status,2
  2229 ;; Tracked objects:
  2230 ;;		On entry : 0/0
  2231 ;;		On exit  : 0/0
  2232 ;;		Unchanged: 0/0
  2233 ;; Data sizes:     COMRAM   BANK0   BANK1   BANK2   BANK3   BANK4   BANK5   BANK6   BANK7   BANK8   BANK9  BANK10  BANK1
      +1  BANK12  BANK13  BANK14  BANK15
  2234 ;;      Params:         2       0       0       0       0       0       0       0       0       0       0       0       
      +0       0       0       0       0
  2235 ;;      Locals:         0       0       0       0       0       0       0       0       0       0       0       0       
      +0       0       0       0       0
  2236 ;;      Temps:          0       0       0       0       0       0       0       0       0       0       0       0       
      +0       0       0       0       0
  2237 ;;      Totals:         2       0       0       0       0       0       0       0       0       0       0       0       
      +0       0       0       0       0
  2238 ;;Total ram usage:        2 bytes
  2239 ;; Hardware stack levels used: 1
  2240 ;; This function calls:
  2241 ;;		Nothing
  2242 ;; This function is called by:
  2243 ;;		_TIMER0_ISR
  2244 ;; This function uses a non-reentrant model
  2245 ;;
  2246                           
  2247                           	psect	text18
  2248   001712                     __ptext18:
  2249                           	callstack 0
  2250   001712                     i2_Timer0_Preload_Config:
  2251                           	callstack 21
  2252   001712                     
  2253                           ;MCAL_Layer/Timer0/mcal_timer0.c: 193: static __attribute__((inline)) void Timer0_Preloa
      +                          d_Config(uint16 preload_value);MCAL_Layer/Timer0/mcal_timer0.c: 194: {;MCAL_Layer/Timer0
      +                          /mcal_timer0.c: 195:     TMR0H = (uint8)(preload_value >> 8);
  2254   001712  5065               	movf	(i2Timer0_Preload_Config@preload_value+1)^0,w,c
  2255   001714  6ED7               	movwf	215,c	;volatile
  2256   001716                     
  2257                           ;MCAL_Layer/Timer0/mcal_timer0.c: 196:     TMR0L = (uint8)(preload_value & 0xFF);
  2258   001716  C064  FFD6         	movff	i2Timer0_Preload_Config@preload_value,4054	;volatile
  2259   00171A                     
  2260                           ;MCAL_Layer/Timer0/mcal_timer0.c: 197:     timer0_preload = preload_value;
  2261   00171A  C064  F01A         	movff	i2Timer0_Preload_Config@preload_value,_timer0_preload
  2262   00171E  C065  F01B         	movff	i2Timer0_Preload_Config@preload_value+1,_timer0_preload+1
  2263   001722  0012               	return		;funcret
  2264   001724                     __end_ofi2_Timer0_Preload_Config:
  2265                           	callstack 0
  2266                           
  2267 ;; *************** function _Timer0_App_ISR *****************
  2268 ;; Defined at:
  2269 ;;		line 47 in file "application.c"
  2270 ;; Parameters:    Size  Location     Type
  2271 ;;		None
  2272 ;; Auto vars:     Size  Location     Type
  2273 ;;		None
  2274 ;; Return value:  Size  Location     Type
  2275 ;;                  1    wreg      void 
  2276 ;; Registers used:
  2277 ;;		None
  2278 ;; Tracked objects:
  2279 ;;		On entry : 0/0
  2280 ;;		On exit  : 0/0
  2281 ;;		Unchanged: 0/0
  2282 ;; Data sizes:     COMRAM   BANK0   BANK1   BANK2   BANK3   BANK4   BANK5   BANK6   BANK7   BANK8   BANK9  BANK10  BANK1
      +1  BANK12  BANK13  BANK14  BANK15
  2283 ;;      Params:         0       0       0       0       0       0       0       0       0       0       0       0       
      +0       0       0       0       0
  2284 ;;      Locals:         0       0       0       0       0       0       0       0       0       0       0       0       
      +0       0       0       0       0
  2285 ;;      Temps:          0       0       0       0       0       0       0       0       0       0       0       0       
      +0       0       0       0       0
  2286 ;;      Totals:         0       0       0       0       0       0       0       0       0       0       0       0       
      +0       0       0       0       0
  2287 ;;Total ram usage:        0 bytes
  2288 ;; Hardware stack levels used: 1
  2289 ;; This function calls:
  2290 ;;		Nothing
  2291 ;; This function is called by:
  2292 ;;		_TIMER0_ISR
  2293 ;; This function uses a non-reentrant model
  2294 ;;
  2295                           
  2296                           	psect	text19
  2297   001730                     __ptext19:
  2298                           	callstack 0
  2299   001730                     _Timer0_App_ISR:
  2300                           	callstack 21
  2301   001730  0012               	return		;funcret
  2302   001732                     __end_of_Timer0_App_ISR:
  2303                           	callstack 0
  2304                           
  2305 ;; *************** function _INT2_ISR *****************
  2306 ;; Defined at:
  2307 ;;		line 96 in file "MCAL_Layer/Interrupt/mcal_external_interrupt.c"
  2308 ;; Parameters:    Size  Location     Type
  2309 ;;		None
  2310 ;; Auto vars:     Size  Location     Type
  2311 ;;		None
  2312 ;; Return value:  Size  Location     Type
  2313 ;;                  1    wreg      void 
  2314 ;; Registers used:
  2315 ;;		None
  2316 ;; Tracked objects:
  2317 ;;		On entry : 0/0
  2318 ;;		On exit  : 0/0
  2319 ;;		Unchanged: 0/0
  2320 ;; Data sizes:     COMRAM   BANK0   BANK1   BANK2   BANK3   BANK4   BANK5   BANK6   BANK7   BANK8   BANK9  BANK10  BANK1
      +1  BANK12  BANK13  BANK14  BANK15
  2321 ;;      Params:         0       0       0       0       0       0       0       0       0       0       0       0       
      +0       0       0       0       0
  2322 ;;      Locals:         0       0       0       0       0       0       0       0       0       0       0       0       
      +0       0       0       0       0
  2323 ;;      Temps:          0       0       0       0       0       0       0       0       0       0       0       0       
      +0       0       0       0       0
  2324 ;;      Totals:         0       0       0       0       0       0       0       0       0       0       0       0       
      +0       0       0       0       0
  2325 ;;Total ram usage:        0 bytes
  2326 ;; Hardware stack levels used: 1
  2327 ;; This function calls:
  2328 ;;		Nothing
  2329 ;; This function is called by:
  2330 ;;		_InterruptManagerHigh
  2331 ;; This function uses a non-reentrant model
  2332 ;;
  2333                           
  2334                           	psect	text20
  2335   001728                     __ptext20:
  2336                           	callstack 0
  2337   001728                     _INT2_ISR:
  2338                           	callstack 22
  2339   001728                     
  2340                           ;MCAL_Layer/Interrupt/mcal_external_interrupt.c: 99:     (INTCON3bits.INT2IF = 0);
  2341   001728  92F0               	bcf	240,1,c	;volatile
  2342   00172A  0012               	return		;funcret
  2343   00172C                     __end_of_INT2_ISR:
  2344                           	callstack 0
  2345                           
  2346 ;; *************** function _INT0_ISR *****************
  2347 ;; Defined at:
  2348 ;;		line 70 in file "MCAL_Layer/Interrupt/mcal_external_interrupt.c"
  2349 ;; Parameters:    Size  Location     Type
  2350 ;;		None
  2351 ;; Auto vars:     Size  Location     Type
  2352 ;;		None
  2353 ;; Return value:  Size  Location     Type
  2354 ;;                  1    wreg      void 
  2355 ;; Registers used:
  2356 ;;		None
  2357 ;; Tracked objects:
  2358 ;;		On entry : 0/0
  2359 ;;		On exit  : 0/0
  2360 ;;		Unchanged: 0/0
  2361 ;; Data sizes:     COMRAM   BANK0   BANK1   BANK2   BANK3   BANK4   BANK5   BANK6   BANK7   BANK8   BANK9  BANK10  BANK1
      +1  BANK12  BANK13  BANK14  BANK15
  2362 ;;      Params:         0       0       0       0       0       0       0       0       0       0       0       0       
      +0       0       0       0       0
  2363 ;;      Locals:         0       0       0       0       0       0       0       0       0       0       0       0       
      +0       0       0       0       0
  2364 ;;      Temps:          0       0       0       0       0       0       0       0       0       0       0       0       
      +0       0       0       0       0
  2365 ;;      Totals:         0       0       0       0       0       0       0       0       0       0       0       0       
      +0       0       0       0       0
  2366 ;;Total ram usage:        0 bytes
  2367 ;; Hardware stack levels used: 1
  2368 ;; This function calls:
  2369 ;;		Nothing
  2370 ;; This function is called by:
  2371 ;;		_InterruptManagerHigh
  2372 ;; This function uses a non-reentrant model
  2373 ;;
  2374                           
  2375                           	psect	text21
  2376   00172C                     __ptext21:
  2377                           	callstack 0
  2378   00172C                     _INT0_ISR:
  2379                           	callstack 22
  2380   00172C                     
  2381                           ;MCAL_Layer/Interrupt/mcal_external_interrupt.c: 73:     (INTCONbits.INT0IF = 0);
  2382   00172C  92F2               	bcf	242,1,c	;volatile
  2383   00172E  0012               	return		;funcret
  2384   001730                     __end_of_INT0_ISR:
  2385                           	callstack 0
  2386                           
  2387                           	psect	text22
  2388   000000                     __ptext22:
  2389                           	callstack 0
  2390   000000                     
  2391                           	psect	rparam
  2392   000000                     
  2393                           	psect	temp
  2394   00007A                     btemp:
  2395                           	callstack 0
  2396   00007A                     	ds	1
  2397   000000                     int$flags	set	btemp
  2398   000000                     wtemp8	set	btemp+1
  2399   000000                     ttemp5	set	btemp+1
  2400   000000                     ttemp6	set	btemp+4
  2401   000000                     ttemp7	set	btemp+8
  2402                           
  2403                           	psect	idloc
  2404                           
  2405                           ;Config register IDLOC0 @ 0x200000
  2406                           ;	unspecified, using default values
  2407   200000                     	org	2097152
  2408   200000  FF                 	db	255
  2409                           
  2410                           ;Config register IDLOC1 @ 0x200001
  2411                           ;	unspecified, using default values
  2412   200001                     	org	2097153
  2413   200001  FF                 	db	255
  2414                           
  2415                           ;Config register IDLOC2 @ 0x200002
  2416                           ;	unspecified, using default values
  2417   200002                     	org	2097154
  2418   200002  FF                 	db	255
  2419                           
  2420                           ;Config register IDLOC3 @ 0x200003
  2421                           ;	unspecified, using default values
  2422   200003                     	org	2097155
  2423   200003  FF                 	db	255
  2424                           
  2425                           ;Config register IDLOC4 @ 0x200004
  2426                           ;	unspecified, using default values
  2427   200004                     	org	2097156
  2428   200004  FF                 	db	255
  2429                           
  2430                           ;Config register IDLOC5 @ 0x200005
  2431                           ;	unspecified, using default values
  2432   200005                     	org	2097157
  2433   200005  FF                 	db	255
  2434                           
  2435                           ;Config register IDLOC6 @ 0x200006
  2436                           ;	unspecified, using default values
  2437   200006                     	org	2097158
  2438   200006  FF                 	db	255
  2439                           
  2440                           ;Config register IDLOC7 @ 0x200007
  2441                           ;	unspecified, using default values
  2442   200007                     	org	2097159
  2443   200007  FF                 	db	255
  2444                           
  2445                           	psect	config
  2446                           
  2447                           ; Padding undefined space
  2448   300000                     	org	3145728
  2449   300000  FF                 	db	255
  2450                           
  2451                           ;Config register CONFIG1H @ 0x300001
  2452                           ;	unspecified, using default values
  2453                           ;	Oscillator Selection bits
  2454                           ;	OSC = 0x7, unprogrammed default
  2455                           ;	Fail-Safe Clock Monitor Enable bit
  2456                           ;	FCMEN = 0x0, unprogrammed default
  2457                           ;	Internal/External Oscillator Switchover bit
  2458                           ;	IESO = 0x0, unprogrammed default
  2459   300001                     	org	3145729
  2460   300001  07                 	db	7
  2461                           
  2462                           ;Config register CONFIG2L @ 0x300002
  2463                           ;	unspecified, using default values
  2464                           ;	Power-up Timer Enable bit
  2465                           ;	PWRT = 0x1, unprogrammed default
  2466                           ;	Brown-out Reset Enable bits
  2467                           ;	BOREN = 0x3, unprogrammed default
  2468                           ;	Brown Out Reset Voltage bits
  2469                           ;	BORV = 0x3, unprogrammed default
  2470   300002                     	org	3145730
  2471   300002  1F                 	db	31
  2472                           
  2473                           ;Config register CONFIG2H @ 0x300003
  2474                           ;	unspecified, using default values
  2475                           ;	Watchdog Timer Enable bit
  2476                           ;	WDT = 0x1, unprogrammed default
  2477                           ;	Watchdog Timer Postscale Select bits
  2478                           ;	WDTPS = 0xF, unprogrammed default
  2479   300003                     	org	3145731
  2480   300003  1F                 	db	31
  2481                           
  2482                           ; Padding undefined space
  2483   300004                     	org	3145732
  2484   300004  FF                 	db	255
  2485                           
  2486                           ;Config register CONFIG3H @ 0x300005
  2487                           ;	unspecified, using default values
  2488                           ;	CCP2 MUX bit
  2489                           ;	CCP2MX = 0x1, unprogrammed default
  2490                           ;	PORTB A/D Enable bit
  2491                           ;	PBADEN = 0x1, unprogrammed default
  2492                           ;	Low-Power Timer1 Oscillator Enable bit
  2493                           ;	LPT1OSC = 0x0, unprogrammed default
  2494                           ;	MCLR Pin Enable bit
  2495                           ;	MCLRE = 0x1, unprogrammed default
  2496   300005                     	org	3145733
  2497   300005  83                 	db	131
  2498                           
  2499                           ;Config register CONFIG4L @ 0x300006
  2500                           ;	unspecified, using default values
  2501                           ;	Stack Full/Underflow Reset Enable bit
  2502                           ;	STVREN = 0x1, unprogrammed default
  2503                           ;	Single-Supply ICSP Enable bit
  2504                           ;	LVP = 0x1, unprogrammed default
  2505                           ;	Extended Instruction Set Enable bit
  2506                           ;	XINST = 0x0, unprogrammed default
  2507                           ;	Background Debugger Enable bit
  2508                           ;	DEBUG = 0x1, unprogrammed default
  2509   300006                     	org	3145734
  2510   300006  85                 	db	133
  2511                           
  2512                           ; Padding undefined space
  2513   300007                     	org	3145735
  2514   300007  FF                 	db	255
  2515                           
  2516                           ;Config register CONFIG5L @ 0x300008
  2517                           ;	unspecified, using default values
  2518                           ;	Code Protection bit
  2519                           ;	CP0 = 0x1, unprogrammed default
  2520                           ;	Code Protection bit
  2521                           ;	CP1 = 0x1, unprogrammed default
  2522                           ;	Code Protection bit
  2523                           ;	CP2 = 0x1, unprogrammed default
  2524                           ;	Code Protection bit
  2525                           ;	CP3 = 0x1, unprogrammed default
  2526   300008                     	org	3145736
  2527   300008  0F                 	db	15
  2528                           
  2529                           ;Config register CONFIG5H @ 0x300009
  2530                           ;	unspecified, using default values
  2531                           ;	Boot Block Code Protection bit
  2532                           ;	CPB = 0x1, unprogrammed default
  2533                           ;	Data EEPROM Code Protection bit
  2534                           ;	CPD = 0x1, unprogrammed default
  2535   300009                     	org	3145737
  2536   300009  C0                 	db	192
  2537                           
  2538                           ;Config register CONFIG6L @ 0x30000A
  2539                           ;	unspecified, using default values
  2540                           ;	Write Protection bit
  2541                           ;	WRT0 = 0x1, unprogrammed default
  2542                           ;	Write Protection bit
  2543                           ;	WRT1 = 0x1, unprogrammed default
  2544                           ;	Write Protection bit
  2545                           ;	WRT2 = 0x1, unprogrammed default
  2546                           ;	Write Protection bit
  2547                           ;	WRT3 = 0x1, unprogrammed default
  2548   30000A                     	org	3145738
  2549   30000A  0F                 	db	15
  2550                           
  2551                           ;Config register CONFIG6H @ 0x30000B
  2552                           ;	unspecified, using default values
  2553                           ;	Configuration Register Write Protection bit
  2554                           ;	WRTC = 0x1, unprogrammed default
  2555                           ;	Boot Block Write Protection bit
  2556                           ;	WRTB = 0x1, unprogrammed default
  2557                           ;	Data EEPROM Write Protection bit
  2558                           ;	WRTD = 0x1, unprogrammed default
  2559   30000B                     	org	3145739
  2560   30000B  E0                 	db	224
  2561                           
  2562                           ;Config register CONFIG7L @ 0x30000C
  2563                           ;	unspecified, using default values
  2564                           ;	Table Read Protection bit
  2565                           ;	EBTR0 = 0x1, unprogrammed default
  2566                           ;	Table Read Protection bit
  2567                           ;	EBTR1 = 0x1, unprogrammed default
  2568                           ;	Table Read Protection bit
  2569                           ;	EBTR2 = 0x1, unprogrammed default
  2570                           ;	Table Read Protection bit
  2571                           ;	EBTR3 = 0x1, unprogrammed default
  2572   30000C                     	org	3145740
  2573   30000C  0F                 	db	15
  2574                           
  2575                           ;Config register CONFIG7H @ 0x30000D
  2576                           ;	unspecified, using default values
  2577                           ;	Boot Block Table Read Protection bit
  2578                           ;	EBTRB = 0x1, unprogrammed default
  2579   30000D                     	org	3145741
  2580   30000D  40                 	db	64
  2581                           tosu	equ	0xFFF
  2582                           tosh	equ	0xFFE
  2583                           tosl	equ	0xFFD
  2584                           stkptr	equ	0xFFC
  2585                           pclatu	equ	0xFFB
  2586                           pclath	equ	0xFFA
  2587                           pcl	equ	0xFF9
  2588                           tblptru	equ	0xFF8
  2589                           tblptrh	equ	0xFF7
  2590                           tblptrl	equ	0xFF6
  2591                           tablat	equ	0xFF5
  2592                           prodh	equ	0xFF4
  2593                           prodl	equ	0xFF3
  2594                           indf0	equ	0xFEF
  2595                           postinc0	equ	0xFEE
  2596                           postdec0	equ	0xFED
  2597                           preinc0	equ	0xFEC
  2598                           plusw0	equ	0xFEB
  2599                           fsr0h	equ	0xFEA
  2600                           fsr0l	equ	0xFE9
  2601                           wreg	equ	0xFE8
  2602                           indf1	equ	0xFE7
  2603                           postinc1	equ	0xFE6
  2604                           postdec1	equ	0xFE5
  2605                           preinc1	equ	0xFE4
  2606                           plusw1	equ	0xFE3
  2607                           fsr1h	equ	0xFE2
  2608                           fsr1l	equ	0xFE1
  2609                           bsr	equ	0xFE0
  2610                           indf2	equ	0xFDF
  2611                           postinc2	equ	0xFDE
  2612                           postdec2	equ	0xFDD
  2613                           preinc2	equ	0xFDC
  2614                           plusw2	equ	0xFDB
  2615                           fsr2h	equ	0xFDA
  2616                           fsr2l	equ	0xFD9
  2617                           status	equ	0xFD8

Data Sizes:
    Strings     3
    Constant    16
    Data        44
    BSS         55
    Persistent  1
    Stack       0

Auto Spaces:
    Space          Size  Autos    Used
    COMRAM          126     21     121
    BANK0           128      3       3
    BANK1           256      0       0
    BANK2           256      0       0
    BANK3           256      0       0
    BANK4           256      0       0
    BANK5           256      0       0
    BANK6           256      0       0
    BANK7           256      0       0
    BANK8           256      0       0
    BANK9           256      0       0
    BANK10          256      0       0
    BANK11          256      0       0
    BANK12          256      0       0
    BANK13          256      0       0
    BANK14          256      0       0
    BANK15          128      0       0

Pointer List with Targets:

    vfprintf$2	PTR PTR void  size(2) Largest target is 2
		 -> sprintf@ap(COMRAM[2]), 

    vfprintf$1	PTR const unsigned char  size(2) Largest target is 3
		 -> STR_3(CODE[3]), STR_2(CODE[3]), STR_1(CODE[3]), 

    vfprintf$0	PTR struct _IO_FILE size(2) Largest target is 12
		 -> sprintf@f(COMRAM[12]), 

    S2943$source	PTR const unsigned char  size(2) Largest target is 0

    f...source	PTR const unsigned char  size(2) Largest target is 0

    S2943$buffer	PTR unsigned char  size(2) Largest target is 0

    f...buffer	PTR unsigned char  size(2) Largest target is 0

    Timer1_Preload_Config@_timer1_config.Timer1_InterruptHandler	PTR FTN()void  size(2) Largest target is 0

    Timer1_Register_Size_Config@_timer1_config.Timer1_InterruptHandler	PTR FTN()void  size(2) Largest target is 0

    Timer1_Mode_Select@_timer1_config.Timer1_InterruptHandler	PTR FTN()void  size(2) Largest target is 0

    S2222$Timer1_InterruptHandler	PTR FTN()void  size(2) Largest target is 0

    mcal_Timer1_Init@_timer1_config.Timer1_InterruptHandler	PTR FTN()void  size(2) Largest target is 0

    Timer1_InterruptHandler	PTR FTN()void  size(2) Largest target is 1
		 -> NULL(), 

    timer0_counter_obj.Timer0_InterruptHandler	PTR FTN()void  size(2) Largest target is 1
		 -> Timer0_App_ISR(), 

    Timer0_Prescaler_Config@_timer0_config.Timer0_InterruptHandler	PTR FTN()void  size(2) Largest target is 1
		 -> Timer0_App_ISR(), 

    Timer0_Prescaler_Config@_timer0_config	PTR const struct . size(2) Largest target is 7
		 -> timer0_counter_obj(COMRAM[7]), 

    Timer0_Register_Size_Config@_timer0_config.Timer0_InterruptHandler	PTR FTN()void  size(2) Largest target is 1
		 -> Timer0_App_ISR(), 

    Timer0_Register_Size_Config@_timer0_config	PTR const struct . size(2) Largest target is 7
		 -> timer0_counter_obj(COMRAM[7]), 

    Timer0_Mode_Select@_timer0_config.Timer0_InterruptHandler	PTR FTN()void  size(2) Largest target is 1
		 -> Timer0_App_ISR(), 

    Timer0_Mode_Select@_timer0_config	PTR const struct . size(2) Largest target is 7
		 -> timer0_counter_obj(COMRAM[7]), 

    mcal_Timer0_Read_Value@value	PTR unsigned short  size(2) Largest target is 2
		 -> freq(COMRAM[2]), 

    mcal_Timer0_Read_Value@_timer0_config	PTR const struct . size(2) Largest target is 7
		 -> timer0_counter_obj(COMRAM[7]), 

    mcal_Timer0_Write_Value@_timer0_config	PTR const struct . size(2) Largest target is 7
		 -> timer0_counter_obj(COMRAM[7]), 

    Timer0_InterruptHandler	PTR FTN()void  size(2) Largest target is 1
		 -> Timer0_App_ISR(), NULL(), 

    S1895$Timer0_InterruptHandler	PTR FTN()void  size(2) Largest target is 1
		 -> Timer0_App_ISR(), 

    mcal_Timer0_Init@_timer0_config.Timer0_InterruptHandler	PTR FTN()void  size(2) Largest target is 1
		 -> Timer0_App_ISR(), 

    mcal_Timer0_Init@_timer0_config	PTR const struct . size(2) Largest target is 7
		 -> timer0_counter_obj(COMRAM[7]), 

    Interrupt_RBx_SetInterruptHandler@_RBx_intr_config.EXT_InterruptHandler_High	PTR FTN()void  size(2) Largest target is 0

    Interrupt_RBx_SetInterruptHandler@_RBx_intr_config.EXT_InterruptHandler_Low	PTR FTN()void  size(2) Largest target is 0

    Interrupt_RBx_Pin_Init@_RBx_intr_config.EXT_InterruptHandler_High	PTR FTN()void  size(2) Largest target is 0

    Interrupt_RBx_Pin_Init@_RBx_intr_config.EXT_InterruptHandler_Low	PTR FTN()void  size(2) Largest target is 0

    Interrupt_RBx_Priority_Init@_RBx_intr_config.EXT_InterruptHandler_High	PTR FTN()void  size(2) Largest target is 0

    Interrupt_RBx_Priority_Init@_RBx_intr_config.EXT_InterruptHandler_Low	PTR FTN()void  size(2) Largest target is 0

    S1439$EXT_InterruptHandler_High	PTR FTN()void  size(2) Largest target is 0

    Interrupt_RBx_Enable@_RBx_intr_config.EXT_InterruptHandler_High	PTR FTN()void  size(2) Largest target is 0

    S1439$EXT_InterruptHandler_Low	PTR FTN()void  size(2) Largest target is 0

    Interrupt_RBx_Enable@_RBx_intr_config.EXT_InterruptHandler_Low	PTR FTN()void  size(2) Largest target is 0

    Interrupt_INTx_SetInterruptHandler@_INTx_config.EXT_InterruptHandler	PTR FTN()void  size(2) Largest target is 0

    Interrupt_INTx_Clear_Flag@_INTx_config.EXT_InterruptHandler	PTR FTN()void  size(2) Largest target is 0

    Interrupt_INTx_Pin_Init@_INTx_config.EXT_InterruptHandler	PTR FTN()void  size(2) Largest target is 0

    Interrupt_INTx_Edge_Init@_INTx_config.EXT_InterruptHandler	PTR FTN()void  size(2) Largest target is 0

    Interrupt_INTx_Priority_Init@_INTx_config.EXT_InterruptHandler	PTR FTN()void  size(2) Largest target is 0

    Interrupt_INTx_Disable@_INTx_config.EXT_InterruptHandler	PTR FTN()void  size(2) Largest target is 0

    S1326$EXT_InterruptHandler	PTR FTN()void  size(2) Largest target is 0

    Interrupt_INTx_Enable@_INTx_config.EXT_InterruptHandler	PTR FTN()void  size(2) Largest target is 0

    RB7_InterruptHandler_High	PTR FTN()void  size(2) Largest target is 1
		 -> NULL(), 

    RB7_InterruptHandler_Low	PTR FTN()void  size(2) Largest target is 1
		 -> NULL(), 

    RB6_InterruptHandler_High	PTR FTN()void  size(2) Largest target is 1
		 -> NULL(), 

    RB6_InterruptHandler_Low	PTR FTN()void  size(2) Largest target is 1
		 -> NULL(), 

    RB5_InterruptHandler_High	PTR FTN()void  size(2) Largest target is 1
		 -> NULL(), 

    RB5_InterruptHandler_Low	PTR FTN()void  size(2) Largest target is 1
		 -> NULL(), 

    RB4_InterruptHandler_High	PTR FTN()void  size(2) Largest target is 1
		 -> NULL(), 

    RB4_InterruptHandler_Low	PTR FTN()void  size(2) Largest target is 1
		 -> NULL(), 

    INT2_InterruptHandler	PTR FTN()void  size(2) Largest target is 1
		 -> NULL(), 

    INT1_InterruptHandler	PTR FTN()void  size(2) Largest target is 1
		 -> NULL(), 

    INT0_InterruptHandler	PTR FTN()void  size(2) Largest target is 1
		 -> NULL(), 

    gpio_pin_initialize@_pin_config	PTR const struct . size(2) Largest target is 1
		 -> led_2(COMRAM[1]), led_1(COMRAM[1]), 

    gpio_pin_write_logic@_pin_config	PTR const struct . size(2) Largest target is 1
		 -> led_2(COMRAM[1]), led_1(COMRAM[1]), 

    gpio_pin_direction_initialize@_pin_config	PTR const struct . size(2) Largest target is 1
		 -> Timer0_Mode_Select@_T0CKI_config(COMRAM[1]), led_2(COMRAM[1]), led_1(COMRAM[1]), 

    port_registers	PTR volatile unsigned char [5] size(2) Largest target is 1
		 -> PORTE(BITBIGSFRlllll[1]), PORTD(BITBIGSFRlllll[1]), PORTC(BITBIGSFRlllll[1]), PORTB(BITBIGSFRlllll[1]), 
		 -> PORTA(BITBIGSFRlllll[1]), 

    lat_registers	PTR volatile unsigned char [5] size(2) Largest target is 1
		 -> LATE(BITBIGSFRllllh[1]), LATD(BITBIGSFRllllh[1]), LATC(BITBIGSFRllllh[1]), LATB(BITBIGSFRllllh[1]), 
		 -> LATA(BITBIGSFRlllll[1]), 

    tris_registers	PTR volatile unsigned char [5] size(2) Largest target is 1
		 -> TRISD(ABS[1]), TRISC(ABS[1]), TRISB(ABS[1]), TRISE(ABS[1]), 
		 -> TRISA(BITBIGSFRlllll[1]), 

    adc_voltage_reference_configure@_adc_config.ADC_InterruptHandler	PTR FTN()void  size(2) Largest target is 0

    adc_select_result_format@_adc_config.ADC_InterruptHandler	PTR FTN()void  size(2) Largest target is 0

    mcal_adc_GetConversionResult@_adc_config.ADC_InterruptHandler	PTR FTN()void  size(2) Largest target is 0

    ADC_InterruptHandler	PTR FTN()void  size(2) Largest target is 1
		 -> NULL(), 

    S606$ADC_InterruptHandler	PTR FTN()void  size(2) Largest target is 0

    mcal_adc_Init@_adc_config.ADC_InterruptHandler	PTR FTN()void  size(2) Largest target is 0

    ecu_led_initialize@_led_config	PTR const struct . size(2) Largest target is 1
		 -> led_2(COMRAM[1]), led_1(COMRAM[1]), 

    sp__memset	PTR void  size(2) Largest target is 0


Critical Paths under _main in COMRAM

    _mcal_Timer0_Write_Value->_Timer0_Preload_Config
    _application_initialize->_mcal_Timer0_Init
    _mcal_Timer0_Init->_Timer0_Mode_Select
    _Timer0_Mode_Select->_gpio_pin_direction_initialize
    _ecu_layer_initialize->_ecu_led_initialize
    _ecu_led_initialize->_gpio_pin_initialize
    _gpio_pin_initialize->_gpio_pin_write_logic

Critical Paths under _InterruptManagerLow in COMRAM

    None.

Critical Paths under _InterruptManagerHigh in COMRAM

    _TIMER0_ISR->i2_Timer0_Preload_Config

Critical Paths under _main in BANK0

    _ecu_layer_initialize->_ecu_led_initialize

Critical Paths under _InterruptManagerLow in BANK0

    None.

Critical Paths under _InterruptManagerHigh in BANK0

    None.

Critical Paths under _main in BANK1

    None.

Critical Paths under _InterruptManagerLow in BANK1

    None.

Critical Paths under _InterruptManagerHigh in BANK1

    None.

Critical Paths under _main in BANK2

    None.

Critical Paths under _InterruptManagerLow in BANK2

    None.

Critical Paths under _InterruptManagerHigh in BANK2

    None.

Critical Paths under _main in BANK3

    None.

Critical Paths under _InterruptManagerLow in BANK3

    None.

Critical Paths under _InterruptManagerHigh in BANK3

    None.

Critical Paths under _main in BANK4

    None.

Critical Paths under _InterruptManagerLow in BANK4

    None.

Critical Paths under _InterruptManagerHigh in BANK4

    None.

Critical Paths under _main in BANK5

    None.

Critical Paths under _InterruptManagerLow in BANK5

    None.

Critical Paths under _InterruptManagerHigh in BANK5

    None.

Critical Paths under _main in BANK6

    None.

Critical Paths under _InterruptManagerLow in BANK6

    None.

Critical Paths under _InterruptManagerHigh in BANK6

    None.

Critical Paths under _main in BANK7

    None.

Critical Paths under _InterruptManagerLow in BANK7

    None.

Critical Paths under _InterruptManagerHigh in BANK7

    None.

Critical Paths under _main in BANK8

    None.

Critical Paths under _InterruptManagerLow in BANK8

    None.

Critical Paths under _InterruptManagerHigh in BANK8

    None.

Critical Paths under _main in BANK9

    None.

Critical Paths under _InterruptManagerLow in BANK9

    None.

Critical Paths under _InterruptManagerHigh in BANK9

    None.

Critical Paths under _main in BANK10

    None.

Critical Paths under _InterruptManagerLow in BANK10

    None.

Critical Paths under _InterruptManagerHigh in BANK10

    None.

Critical Paths under _main in BANK11

    None.

Critical Paths under _InterruptManagerLow in BANK11

    None.

Critical Paths under _InterruptManagerHigh in BANK11

    None.

Critical Paths under _main in BANK12

    None.

Critical Paths under _InterruptManagerLow in BANK12

    None.

Critical Paths under _InterruptManagerHigh in BANK12

    None.

Critical Paths under _main in BANK13

    None.

Critical Paths under _InterruptManagerLow in BANK13

    None.

Critical Paths under _InterruptManagerHigh in BANK13

    None.

Critical Paths under _main in BANK14

    None.

Critical Paths under _InterruptManagerLow in BANK14

    None.

Critical Paths under _InterruptManagerHigh in BANK14

    None.

Critical Paths under _main in BANK15

    None.

Critical Paths under _InterruptManagerLow in BANK15

    None.

Critical Paths under _InterruptManagerHigh in BANK15

    None.

Call Graph Tables:

 ---------------------------------------------------------------------------------
 (Depth) Function   	        Calls       Base Space   Used Autos Params    Refs
 ---------------------------------------------------------------------------------
 (0) _main                                                 2     2      0   10545
                                              1 BANK0      2     2      0
             _application_initialize
             _mcal_Timer0_Read_Value
            _mcal_Timer0_Write_Value
 ---------------------------------------------------------------------------------
 (1) _mcal_Timer0_Write_Value                              5     1      4     488
                                              7 COMRAM     5     1      4
              _Timer0_Preload_Config
 ---------------------------------------------------------------------------------
 (1) _mcal_Timer0_Read_Value                               9     5      4     246
                                              5 COMRAM     9     5      4
 ---------------------------------------------------------------------------------
 (1) _application_initialize                               0     0      0    9811
               _ecu_layer_initialize
                   _mcal_Timer0_Init
 ---------------------------------------------------------------------------------
 (2) _mcal_Timer0_Init                                     4     2      2    1968
                                             17 COMRAM     4     2      2
                 _Timer0_Mode_Select
              _Timer0_Preload_Config
            _Timer0_Prescaler_Config
        _Timer0_Register_Size_Config
 ---------------------------------------------------------------------------------
 (3) _Timer0_Register_Size_Config                          2     0      2     120
                                              5 COMRAM     2     0      2
 ---------------------------------------------------------------------------------
 (3) _Timer0_Prescaler_Config                              3     1      2     142
                                              5 COMRAM     3     1      2
 ---------------------------------------------------------------------------------
 (2) _Timer0_Preload_Config                                2     0      2     268
                                              5 COMRAM     2     0      2
 ---------------------------------------------------------------------------------
 (3) _Timer0_Mode_Select                                   3     1      2    1063
                                             14 COMRAM     3     1      2
      _gpio_pin_direction_initialize
 ---------------------------------------------------------------------------------
 (2) _ecu_layer_initialize                                 1     1      0    7843
                 _ecu_led_initialize
 ---------------------------------------------------------------------------------
 (3) _ecu_led_initialize                                   3     1      2    7834
                                             19 COMRAM     2     0      2
                                              0 BANK0      1     1      0
                _gpio_pin_initialize
 ---------------------------------------------------------------------------------
 (4) _gpio_pin_initialize                                  4     2      2    7552
                                             15 COMRAM     4     2      2
      _gpio_pin_direction_initialize
               _gpio_pin_write_logic
 ---------------------------------------------------------------------------------
 (5) _gpio_pin_write_logic                                10     7      3    5117
                                              5 COMRAM    10     7      3
 ---------------------------------------------------------------------------------
 (4) _gpio_pin_direction_initialize                        9     7      2     797
                                              5 COMRAM     9     7      2
 ---------------------------------------------------------------------------------
 Estimated maximum stack depth 5
 ---------------------------------------------------------------------------------
 (Depth) Function   	        Calls       Base Space   Used Autos Params    Refs
 ---------------------------------------------------------------------------------
 (6) _InterruptManagerLow                                  1     1      0       0
                                              4 COMRAM     1     1      0
                           _INT1_ISR
 ---------------------------------------------------------------------------------
 (7) _INT1_ISR                                             0     0      0       0
 ---------------------------------------------------------------------------------
 Estimated maximum stack depth 7
 ---------------------------------------------------------------------------------
 (Depth) Function   	        Calls       Base Space   Used Autos Params    Refs
 ---------------------------------------------------------------------------------
 (8) _InterruptManagerHigh                                 2     2      0      92
                                              2 COMRAM     2     2      0
                           _INT0_ISR
                           _INT2_ISR
                         _TIMER0_ISR
 ---------------------------------------------------------------------------------
 (9) _TIMER0_ISR                                           0     0      0      92
                                NULL *
                     _Timer0_App_ISR *
            i2_Timer0_Preload_Config
 ---------------------------------------------------------------------------------
 (10) i2_Timer0_Preload_Config                             2     0      2      92
                                              0 COMRAM     2     0      2
 ---------------------------------------------------------------------------------
 (10) _Timer0_App_ISR                                      0     0      0       0
 ---------------------------------------------------------------------------------
 (10) NULL(Fake)                                           0     0      0       0
 ---------------------------------------------------------------------------------
 (9) _INT2_ISR                                             0     0      0       0
 ---------------------------------------------------------------------------------
 (9) _INT0_ISR                                             0     0      0       0
 ---------------------------------------------------------------------------------
 Estimated maximum stack depth 10
 ---------------------------------------------------------------------------------

 Call Graph Graphs:

 _main (ROOT)
   _application_initialize
     _ecu_layer_initialize
       _ecu_led_initialize
         _gpio_pin_initialize
           _gpio_pin_direction_initialize
           _gpio_pin_write_logic
     _mcal_Timer0_Init
       _Timer0_Mode_Select
         _gpio_pin_direction_initialize
       _Timer0_Preload_Config
       _Timer0_Prescaler_Config
       _Timer0_Register_Size_Config
   _mcal_Timer0_Read_Value
   _mcal_Timer0_Write_Value
     _Timer0_Preload_Config

 _InterruptManagerLow (ROOT)
   _INT1_ISR

 _InterruptManagerHigh (ROOT)
   _INT0_ISR
   _INT2_ISR
   _TIMER0_ISR
     NULL(Fake) *
     _Timer0_App_ISR *
     i2_Timer0_Preload_Config *

 Address spaces:
Name               Size   Autos  Total    Cost      Usage
BIGRAM             F7F      0       0      46        0.0%
EEDATA             400      0       0       0        0.0%
BITBANK14          100      0       0      33        0.0%
BANK14             100      0       0      34        0.0%
BITBANK13          100      0       0      31        0.0%
BANK13             100      0       0      32        0.0%
BITBANK12          100      0       0      29        0.0%
BANK12             100      0       0      30        0.0%
BITBANK11          100      0       0      27        0.0%
BANK11             100      0       0      28        0.0%
BITBANK10          100      0       0      25        0.0%
BANK10             100      0       0      26        0.0%
BITBANK9           100      0       0      23        0.0%
BANK9              100      0       0      24        0.0%
BITBANK8           100      0       0      21        0.0%
BANK8              100      0       0      22        0.0%
BITBANK7           100      0       0      18        0.0%
BANK7              100      0       0      19        0.0%
BITBANK6           100      0       0      16        0.0%
BANK6              100      0       0      17        0.0%
BITBANK5           100      0       0      14        0.0%
BANK5              100      0       0      15        0.0%
BITBANK4           100      0       0      12        0.0%
BANK4              100      0       0      13        0.0%
BITBANK3           100      0       0      10        0.0%
BANK3              100      0       0      11        0.0%
BITBANK2           100      0       0       8        0.0%
BANK2              100      0       0       9        0.0%
BITBANK1           100      0       0       6        0.0%
BANK1              100      0       0       7        0.0%
BITBANK15           80      0       0      35        0.0%
BANK15              80      0       0      36        0.0%
BITBANK0            80      0       0       4        0.0%
BANK0               80      3       3       5        2.3%
BITCOMRAM           7E      0       0       0        0.0%
COMRAM              7E     15      79       1       96.0%
BITBIGSFRhhllh      18      0       0      38        0.0%
BITBIGSFRllhh       15      0       0      41        0.0%
BITBIGSFRhhh         D      0       0      37        0.0%
BITBIGSFRhlhl        8      0       0      40        0.0%
BITBIGSFRlllhh       6      0       0      43        0.0%
BITBIGSFRllhll       6      0       0      42        0.0%
BITBIGSFRllllh       4      0       0      44        0.0%
BITBIGSFRhhlll       4      0       0      39        0.0%
BITBIGSFRlllll       4      0       0      45        0.0%
BIGSFR               0      0       0     200        0.0%
BITSFR               0      0       0     200        0.0%
SFR                  0      0       0     200        0.0%
STACK                0      0       0       2        0.0%
NULL                 0      0       0       0        0.0%
ABS                  0      0      7C      20        0.0%
DATA                 0      0      7C       3        0.0%
CODE                 0      0       0       0        0.0%


Microchip Technology PIC18 Macro Assembler V2.41 build 20230208172133 
Symbol Table                                                                                   Wed Nov 01 11:08:52 2023

                                       bsr 0FE0                      ??_InterruptManagerLow 0068  
                                      l313 16EA                                        l518 1158  
                                      l537 1284                                        l289 1676  
                                      l558 14AC                                        l921 133C  
                                      l924 1340                                        l918 12A4  
                                      l934 16A4                                        l952 13CA  
                                      l937 157A                                        l946 13BA  
                                      l939 1598                                        l966 1504  
                                      l959 15D6                                        l969 1710  
                   ??_InterruptManagerHigh 0066                                        _ret 0079  
                                      prod 0FF3                                        tosl 0FFD  
                                      wreg 0FE8                  _RB5_InterruptHandler_High 0026  
                                     l1004 16FE                                       l4300 1258  
                                     l4310 1016                                       l4302 1282  
                                     l4320 10B8                                       l4312 101A  
                                     l5040 1506                                       l4314 102C  
                                     l5042 150A                                       l4324 1114  
                                     l4316 104E                                       l4340 1476  
                                     l3540 14AE                                       l3532 159A  
                                     l5044 1520                                       l4318 1056  
                                     l4326 1156                                       l4342 147E  
                                     l4334 1442                                       l4350 1648  
                                     l3550 1700                                       l3542 14C8  
                                     l3534 15B4                                       l5046 1536  
                                     l4344 14AA                                       l4336 1442  
                                     l4352 165A                                       l4360 1342  
                                     l3552 1704                                       l3544 14CE  
                                     l3536 15BA                                       l5090 1140  
                                     l4290 1170                                       l4338 1454  
                                     l4354 1664                                       l4450 16D2  
                                     l4370 1398                                       l4362 135C  
                                     l3554 1708                                       l3546 14E8  
                                     l3538 15D4                                       l4292 1192  
                                     l4356 1674                                       l4348 1648  
                                     l4452 16DE                                       l4372 139E  
                                     l4364 1362                                       l3548 14EA  
                                     l4460 12A6                                       l4294 119A  
                                     l4286 115A                                       l4374 13B8  
                                     l4366 137C                                       l4470 12F2  
                                     l4462 12B2                                       l4454 1286  
                                     l5088 126C                                       l4296 11FC  
                                     l4288 115E                                       l4448 16D2  
                                     l4376 13BE                                       l4368 137E  
                                     l4480 131C                                       l4472 12F4  
                                     l4464 12BE                                       l4456 128A  
                                     l4482 1338                                       l4474 12F6  
                                     l4466 12CA                                       l4458 129C  
                                     l4476 12F8                                       l4468 12E2  
                                     l4484 133E                                       l3780 167C  
                                     l4478 1314                                       l3790 1558  
                                     l3782 168E                                       l3792 1560  
                                     l3784 1696                                       l4586 16EC  
                                     l3794 1572                                       l3786 16A2  
                                     l3778 1678                                       l3796 1580  
                                     l3798 1596                                       STR_1 1011  
                                     u2000 15B4                                       u2001 15B0  
                                     u2010 15D4                                       u2011 15D0  
                                     u2020 14C8                                       u2021 14C4  
                                     u2030 14E8                                       u2031 14E4  
                                     _LATA 0F89                                       _LATB 0F8A  
                                     _LATC 0F8B                                       _LATD 0F8C  
                                     _LATE 0F8D                                       u2250 168E  
                                     u2251 168A                                       u2260 1572  
                                     u2261 156E                                       u2700 1192  
                                     u2701 118E                                       u2800 1476  
                                     u2801 1472                                       u3417 1542  
                                     u2730 102C                                       u2714 11BA  
                                     u2810 165A                                       u2731 1028  
                                     u2715 11B6                                       u2811 1656  
                                     u2740 104E                                       u2724 121C  
                                     u2820 135C                                       u2900 129C  
                                     u2741 104A                                       u2725 1218  
                                     u2821 1358                                       u2901 1298  
                                     u2830 137C                                       u2910 1314  
                                     u2831 1378                                       u2911 1310  
                                     u2840 1398                                       u2920 1338  
                                     u2841 1394                                       u2921 1334  
                                     u2770 112C                                       u2754 1076  
                                     u2690 1170                                       u2850 13B8  
                                     u2771 1126                                       u2755 1072  
                                     u2691 116C                                       u2851 13B4  
                                     u2780 112E                                       u2764 10D8  
                                     u2765 10D4                                       u2790 1454  
                                     u2791 1450             mcal_Timer0_Init@_timer0_config 0075  
                  ?_mcal_Timer0_Read_Value 0069                                       _main 1506  
                                     _freq 0036                   _RB4_InterruptHandler_Low 002C  
                                     fsr2h 0FDA                                       indf2 0FDF  
                                     fsr1l 0FE1                                       fsr2l 0FD9  
                                     btemp 007A                   _RB7_InterruptHandler_Low 0020  
                                     prodl 0FF3                                       start 0046  
                             ___param_bank 0000                       _gpio_pin_write_logic 115A  
                              ?_TIMER0_ISR 0064            __end_of_mcal_Timer0_Write_Value 16A6  
                         __end_of_INT0_ISR 1730                           __end_of_INT1_ISR 1728  
                         __end_of_INT2_ISR 172C                                      ?_main 0064  
                 ??_application_initialize 0079                                      _EEADR 0FA9  
                                    i1l664 1726                                      i1l889 003E  
                                    i2l659 172E                                      i2l669 172A  
                                    i2l882 1436                                      i2l973 1610  
                                    i2l877 13F6                                      i2l879 1416  
                                    i2l969 1722                                      _TMR0H 0FD7  
                                    _TMR1H 0FCF                                      _TMR0L 0FD6  
                                    _TMR1L 0FCE                                      _PORTA 0F80  
                                    _PORTB 0F81                                      _PORTC 0F82  
                                    _PORTD 0F83                                      _PORTE 0F84  
                                    _TRISA 0F92                                      _TRISB 0F93  
                                    _TRISC 0F94                                      _TRISD 0F95  
                                    _TRISE 0F96                                      _led_1 0063  
                                    _led_2 0062            Timer0_Mode_Select@_T0CKI_config 0074  
           __end_of_mcal_Timer0_Read_Value 159A                                      pclath 0FFA  
                                    pclatu 0FFB                                      tablat 0FF5  
                                    ttemp5 007B                                      ttemp6 007E  
                                    ttemp7 0082                                      status 0FD8  
                                    wtemp8 007B                    _Timer0_Prescaler_Config 14AE  
                        ?_mcal_Timer0_Init 0075             ?_gpio_pin_direction_initialize 0069  
            __end_of_Timer0_Preload_Config 1712                         ??_mcal_Timer0_Init 0077  
                          __initialization 1612                               __end_of_main 1558  
                    ?_gpio_pin_write_logic 0069                         _ecu_led_initialize 1648  
                            _lat_registers 0042                                     ??_main 0081  
                            __activetblptr 0003                        ?_ecu_led_initialize 0077  
                           _Timer0_App_ISR 1730                                     _ADRESH 0FC4  
                                   _EEADRH 0FAA                                     _ADRESL 0FC3  
                                   _EEDATA 0FA8                                     _EECON2 0FA7  
                                   i1l2176 1724                                     i1l3334 001E  
                                   i2l1007 1730                                     i1l3336 002C  
                                   i1l3338 003A                   ?i2_Timer0_Preload_Config 0064  
                                   i2l2170 172C                                     i2l2182 1728  
                                   i2l4260 13F2                                     i2l4262 1404  
                                   i2l4264 1412                                     i2l4256 13D6  
                                   i2l4266 1424                                     i2l4258 13E4  
                                   i2l4268 1432                                     i2l3670 171A  
                                   i2l3666 1712                                     i2l3770 15D8  
                                   i2l3668 1716                                     i2l3772 15DA  
                                   i2l3774 15E6                                     i2l3776 15F8  
                     ??_ecu_led_initialize 0079       mcal_Timer0_Read_Value@_timer0_config 0069  
             ?_Timer0_Register_Size_Config 0069                                     clear_0 1638  
                                   isa$std 0001                     __end_of_Timer0_App_ISR 1732  
                             __pdataCOMRAM 0038                        mcal_Timer0_Init@ret 0078  
                             __mediumconst 0000                                     tblptrh 0FF7  
                                   tblptrl 0FF6                                     tblptru 0FF8  
                  _Timer0_InterruptHandler 001C                  ??_Timer0_Prescaler_Config 006B  
                               __accesstop 0080                    __end_of__initialization 163E  
                                ?_INT0_ISR 0064                                  ?_INT1_ISR 0064  
                                ?_INT2_ISR 0064                              ___rparam_used 0001  
                   ??_gpio_pin_write_logic 006C                             __pcstackCOMRAM 0064  
            ??_Timer0_Register_Size_Config 006B   gpio_pin_direction_initialize@_pin_config 0069  
                          ?_Timer0_App_ISR 0064            __end_ofi2_Timer0_Preload_Config 1724  
                    _INT0_InterruptHandler 0032                                 ??_INT0_ISR 0064  
                               ??_INT1_ISR 0068                                 ??_INT2_ISR 0064  
                   _application_initialize 16EC                                 __pnvCOMRAM 0079  
              __end_of_InterruptManagerLow 0046                               ??_TIMER0_ISR 0066  
              mcal_Timer0_Read_Value@value 006B                  _RB6_InterruptHandler_High 0022  
                 ?_mcal_Timer0_Write_Value 006B                             _tris_registers 004C  
                       __end_of_TIMER0_ISR 1612                   _RB6_InterruptHandler_Low 0024  
                     _ADC_InterruptHandler 0034                                    __Hparam 0000  
                                  __Lparam 0000                        _gpio_pin_initialize 1442  
                             __psmallconst 1000                    _Timer1_InterruptHandler 0018  
                                  __pcinit 1612                                    __ramtop 1000  
                                  __ptext0 1506                                    __ptext1 1678  
                                  __ptext2 1558                                    __ptext3 16EC  
                                  __ptext4 1286                                    __ptext5 159A  
                                  __ptext6 14AE                                    __ptext7 1700  
                                  __ptext8 1342                                    __ptext9 16D2  
                                _T0CONbits 0FD5                                  _T1CONbits 0FCD  
          ??_gpio_pin_direction_initialize 006B                       ?_gpio_pin_initialize 0073  
                           __pintcode_body 13CC                       end_of_initialization 163E  
                     __end_of_keypad_valus 1011                                    int_func 13CC  
                    ecu_led_initialize@ret 0080                                    postdec1 0FE5  
                                  postdec2 0FDD                                    postinc0 0FEE  
                                  postinc2 0FDE                      _Timer0_Preload_Config 1700  
                    _INT1_InterruptHandler 0030                      ??_gpio_pin_initialize 0075  
               __end_of_Timer0_Mode_Select 13CC              convert_uint16_to_string@F3201 000C  
            convert_uint32_to_string@F3208 0001                           ??_Timer0_App_ISR 0064  
Timer0_Register_Size_Config@_timer0_config 0069                  mcal_Timer0_Read_Value@ret 0070  
                            __pidataCOMRAM 16A6                             _timer0_preload 001A  
                           _timer1_preload 0016               mcal_Timer0_Write_Value@value 006D  
                 ??_mcal_Timer0_Read_Value 006D                        start_initialization 1612  
    __end_of_gpio_pin_direction_initialize 115A              _gpio_pin_direction_initialize 1016  
                  ?_application_initialize 0064      Timer0_Prescaler_Config@_timer0_config 0069  
                   ?_Timer0_Preload_Config 0069      mcal_Timer0_Write_Value@_timer0_config 006B  
             convert_uint8_to_string@F3194 0012               __end_of_ecu_layer_initialize 16EC  
                         _mcal_Timer0_Init 1286                                __pbssCOMRAM 0001  
            ecu_led_initialize@_led_config 0077                              __pcstackBANK0 0080  
            mcal_Timer0_Read_Value@l_tmroh 006F              mcal_Timer0_Read_Value@l_tmrol 0071  
           __end_of_application_initialize 1700                   ?_Timer0_Prescaler_Config 0069  
                       _timer0_counter_obj 005B                      _INT2_InterruptHandler 002E  
             __end_of_InterruptManagerHigh 1442        __end_of_Timer0_Register_Size_Config 15D8  
              _Timer0_Register_Size_Config 159A                    i2_Timer0_Preload_Config 1712  
                                __pintcode 0008            gpio_pin_write_logic@_pin_config 0069  
                              __pintcodelo 0018                  gpio_pin_write_logic@logic 006B  
                             _keypad_valus 1001                                __smallconst 1000  
                _RB4_InterruptHandler_High 002A                  _RB7_InterruptHandler_High 001E  
                                 _INT0_ISR 172C                                   _INT1_ISR 1724  
                                 _INT2_ISR 1728                   _RB5_InterruptHandler_Low 0028  
                                 _IPR1bits 0F9F                                   _RB4_flag 005A  
                                 _PIE1bits 0F9D                                   _RB5_flag 0059  
                                 _RB6_flag 0058                                   _RB7_flag 0057  
                                 i1u170_20 002C                                   i1u170_21 0028  
                                 i1u171_20 003A                                   i1u171_21 0036  
                                 i2u223_40 15F8                                   i2u223_41 15F4  
                                 i2u224_48 15FE                                   i2u224_49 1610  
                                 i2u263_40 13E4                                   i2u263_41 13E0  
                                 i2u264_40 13F2                                   i2u264_41 13EE  
                                 i2u265_40 1404                                   i2u265_41 1400  
                                 _PIR1bits 0F9E                                   i2u266_40 1412  
                                 i2u266_41 140E                                   i2u267_40 1424  
                                 i2u267_41 1420                                   i2u268_40 1432  
                                 i2u268_41 142E                                   _RCONbits 0FD0  
         gpio_pin_direction_initialize@ret 0071                                 _ADCON0bits 0FC2  
                               _ADCON1bits 0FC1                                 _ADCON2bits 0FC0  
          __end_of_Timer0_Prescaler_Config 1506                     gpio_pin_initialize@ret 0076  
                  gpio_pin_write_logic@ret 0072                                _INTCON2bits 0FF1  
                              _INTCON3bits 0FF0                                  copy_data0 1626  
                     _ecu_layer_initialize 16D2                                 _EECON1bits 0FA6  
                ??i2_Timer0_Preload_Config 0066                     _mcal_Timer0_Read_Value 1558  
                                 __Hrparam 0000                                   __Lrparam 0000  
                       _Timer0_Mode_Select 1342                __end_of_gpio_pin_initialize 14AE  
           gpio_pin_initialize@_pin_config 0073                        ?_Timer0_Mode_Select 0072  
                     _InterruptManagerHigh 0008                                   __ptext10 1648  
                                 __ptext11 1442                                   __ptext20 1728  
                                 __ptext12 115A                                   __ptext21 172C  
                                 __ptext13 1016                                   __ptext22 0000  
                                 __ptext15 1724                                   __ptext17 15D8  
                                 __ptext18 1712                                   __ptext19 1730  
                    ?_ecu_layer_initialize 0064                 __end_of_ecu_led_initialize 1678  
                 __end_of_mcal_Timer0_Init 1342                    _mcal_Timer0_Write_Value 1678  
                  ??_Timer0_Preload_Config 006B                       ??_Timer0_Mode_Select 0074  
                                 isa$xinst 0000                                   int$flags 007A  
                               _INTCONbits 0FF2           Timer0_Mode_Select@_timer0_config 0072  
                    ?_InterruptManagerHigh 0064               __end_of_gpio_pin_write_logic 1286  
                                 intlevel1 0000                                   intlevel2 0000  
                      _InterruptManagerLow 0018                    Timer0_Mode_Select@F2936 0056  
                               _TIMER0_ISR 15D8                       ?_InterruptManagerLow 0064  
       Timer0_Preload_Config@preload_value 0069       i2Timer0_Preload_Config@preload_value 0064  
                           _port_registers 0038                          fp__Timer0_App_ISR 0000  
                   ??_ecu_layer_initialize 0079                  ??_mcal_Timer0_Write_Value 006F  
               mcal_Timer0_Write_Value@ret 006F  
